; generated by Component: ARM Compiler 5.06 update 6 (build 750) Tool: ArmCC [4d3637]
; commandline ArmCC [--c99 --list --split_sections --debug -c --asm --interleave -o.\eflash2sram\objects\drv_gui.o --asm_dir=.\Eflash2Sram\Listings\ --list_dir=.\Eflash2Sram\Listings\ --depend=.\eflash2sram\objects\drv_gui.d --cpu=Cortex-M3 --apcs=interwork -O0 --diag_suppress=9931 -I..\..\..\..\Libraries\CMSIS\DSP\Include -I..\..\..\..\Libraries\CMSIS\Core\Include -I..\..\..\..\Libraries\Device\Phoenix\include -I..\..\..\..\Libraries\Protocol\Modbus\include -I..\..\..\..\Libraries\Protocol\Modbus\port -I..\..\..\..\Libraries\Protocol\ -I..\..\..\..\User\LL -I..\..\..\..\Libraries\Driver\include -I..\..\..\..\Libraries\Driver\include\LL -I..\..\..\..\User\Hardware -I..\..\..\..\User\ThirdDrivers -I.\RTE\_Eflash2Sram -ID:\Tools\KIEIL\ARM\CMSIS\5.5.1\CMSIS\Core\Include -ID:\Tools\KIEIL\ARM\CMSIS\5.5.1\Device\ARM\ARMCM3\Include -D__MICROLIB -D__UVISION_VERSION=528 -D_RTE_ -DARMCM3 -DEFLASH2SRAM --omf_browse=.\eflash2sram\objects\drv_gui.crf ..\..\..\..\User\ThirdDrivers\drv_gui.c]
                          THUMB

                          AREA ||i.Draw_Triangel||, CODE, READONLY, ALIGN=1

                  Draw_Triangel PROC
;;;214    ******************************************************************************/ 
;;;215    void Draw_Triangel(u16 x0,u16 y0,u16 x1,u16 y1,u16 x2,u16 y2)
000000  e92d47f0          PUSH     {r4-r10,lr}
;;;216    {
000004  4604              MOV      r4,r0
000006  460d              MOV      r5,r1
000008  4616              MOV      r6,r2
00000a  461f              MOV      r7,r3
00000c  e9dd8908          LDRD     r8,r9,[sp,#0x20]
;;;217    	LCD_DrawLine(x0,y0,x1,y1);
000010  463b              MOV      r3,r7
000012  4632              MOV      r2,r6
000014  4629              MOV      r1,r5
000016  4620              MOV      r0,r4
000018  f7fffffe          BL       LCD_DrawLine
;;;218    	LCD_DrawLine(x1,y1,x2,y2);
00001c  464b              MOV      r3,r9
00001e  4642              MOV      r2,r8
000020  4639              MOV      r1,r7
000022  4630              MOV      r0,r6
000024  f7fffffe          BL       LCD_DrawLine
;;;219    	LCD_DrawLine(x2,y2,x0,y0);
000028  462b              MOV      r3,r5
00002a  4622              MOV      r2,r4
00002c  4649              MOV      r1,r9
00002e  4640              MOV      r0,r8
000030  f7fffffe          BL       LCD_DrawLine
;;;220    }
000034  e8bd87f0          POP      {r4-r10,pc}
;;;221    
                          ENDP


                          AREA ||i.Fill_Triangel||, CODE, READONLY, ALIGN=2

                  Fill_Triangel PROC
;;;241    ******************************************************************************/ 
;;;242    void Fill_Triangel(u16 x0,u16 y0,u16 x1,u16 y1,u16 x2,u16 y2)
000000  e92d4fff          PUSH     {r0-r11,lr}
;;;243    {
000004  b085              SUB      sp,sp,#0x14
;;;244    	u16 a, b, y, last;
;;;245    	int dx01, dy01, dx02, dy02, dx12, dy12;
;;;246    	long sa = 0;
000006  2600              MOVS     r6,#0
;;;247    	long sb = 0;
000008  2700              MOVS     r7,#0
;;;248     	if (y0 > y1) 
00000a  f8bd0018          LDRH     r0,[sp,#0x18]
00000e  f8bd1020          LDRH     r1,[sp,#0x20]
000012  4288              CMP      r0,r1
000014  dd07              BLE      |L2.38|
;;;249    	{
;;;250        _swap(&y0,&y1); 
000016  a908              ADD      r1,sp,#0x20
000018  a806              ADD      r0,sp,#0x18
00001a  f7fffffe          BL       _swap
;;;251    		_swap(&x0,&x1);
00001e  a907              ADD      r1,sp,#0x1c
000020  a805              ADD      r0,sp,#0x14
000022  f7fffffe          BL       _swap
                  |L2.38|
;;;252     	}
;;;253     	if (y1 > y2) 
000026  f8bd0020          LDRH     r0,[sp,#0x20]
00002a  f8bd104c          LDRH     r1,[sp,#0x4c]
00002e  4288              CMP      r0,r1
000030  dd07              BLE      |L2.66|
;;;254    	{
;;;255        _swap(&y2,&y1); 
000032  a908              ADD      r1,sp,#0x20
000034  a813              ADD      r0,sp,#0x4c
000036  f7fffffe          BL       _swap
;;;256    		_swap(&x2,&x1);
00003a  a907              ADD      r1,sp,#0x1c
00003c  a812              ADD      r0,sp,#0x48
00003e  f7fffffe          BL       _swap
                  |L2.66|
;;;257     	}
;;;258      if (y0 > y1) 
000042  f8bd0018          LDRH     r0,[sp,#0x18]
000046  f8bd1020          LDRH     r1,[sp,#0x20]
00004a  4288              CMP      r0,r1
00004c  dd07              BLE      |L2.94|
;;;259    	{
;;;260        _swap(&y0,&y1); 
00004e  a908              ADD      r1,sp,#0x20
000050  a806              ADD      r0,sp,#0x18
000052  f7fffffe          BL       _swap
;;;261    		_swap(&x0,&x1);
000056  a907              ADD      r1,sp,#0x1c
000058  a805              ADD      r0,sp,#0x14
00005a  f7fffffe          BL       _swap
                  |L2.94|
;;;262      }
;;;263    	if(y0 == y2) 
00005e  f8bd0018          LDRH     r0,[sp,#0x18]
000062  f8bd104c          LDRH     r1,[sp,#0x4c]
000066  4288              CMP      r0,r1
000068  d138              BNE      |L2.220|
;;;264    	{ 
;;;265    		a = b = x0;
00006a  f8bd0014          LDRH     r0,[sp,#0x14]
00006e  9003              STR      r0,[sp,#0xc]
000070  9004              STR      r0,[sp,#0x10]
;;;266    		if(x1 < a)
000072  f8bd001c          LDRH     r0,[sp,#0x1c]
000076  f8bd1010          LDRH     r1,[sp,#0x10]
00007a  4288              CMP      r0,r1
00007c  da03              BGE      |L2.134|
;;;267        {
;;;268    			a = x1;
00007e  f8bd001c          LDRH     r0,[sp,#0x1c]
000082  9004              STR      r0,[sp,#0x10]
000084  e008              B        |L2.152|
                  |L2.134|
;;;269        }
;;;270        else if(x1 > b)
000086  f8bd001c          LDRH     r0,[sp,#0x1c]
00008a  f8bd100c          LDRH     r1,[sp,#0xc]
00008e  4288              CMP      r0,r1
000090  dd02              BLE      |L2.152|
;;;271        {
;;;272    			b = x1;
000092  f8bd001c          LDRH     r0,[sp,#0x1c]
000096  9003              STR      r0,[sp,#0xc]
                  |L2.152|
;;;273        }
;;;274        if(x2 < a)
000098  f8bd0048          LDRH     r0,[sp,#0x48]
00009c  f8bd1010          LDRH     r1,[sp,#0x10]
0000a0  4288              CMP      r0,r1
0000a2  da03              BGE      |L2.172|
;;;275        {
;;;276    			a = x2;
0000a4  f8bd0048          LDRH     r0,[sp,#0x48]
0000a8  9004              STR      r0,[sp,#0x10]
0000aa  e008              B        |L2.190|
                  |L2.172|
;;;277        }
;;;278    		else if(x2 > b)
0000ac  f8bd0048          LDRH     r0,[sp,#0x48]
0000b0  f8bd100c          LDRH     r1,[sp,#0xc]
0000b4  4288              CMP      r0,r1
0000b6  dd02              BLE      |L2.190|
;;;279        {
;;;280    			b = x2;
0000b8  f8bd0048          LDRH     r0,[sp,#0x48]
0000bc  9003              STR      r0,[sp,#0xc]
                  |L2.190|
;;;281        }
;;;282    		LCD_Fill(a,y0,b,y0,POINT_COLOR);
0000be  4853              LDR      r0,|L2.524|
0000c0  8800              LDRH     r0,[r0,#0]  ; POINT_COLOR
0000c2  9000              STR      r0,[sp,#0]
0000c4  f8bd3018          LDRH     r3,[sp,#0x18]
0000c8  f8bd200c          LDRH     r2,[sp,#0xc]
0000cc  4619              MOV      r1,r3
0000ce  f8bd0010          LDRH     r0,[sp,#0x10]
0000d2  f7fffffe          BL       LCD_Fill
                  |L2.214|
;;;283        return;
;;;284    	}
;;;285    	dx01 = x1 - x0;
;;;286    	dy01 = y1 - y0;
;;;287    	dx02 = x2 - x0;
;;;288    	dy02 = y2 - y0;
;;;289    	dx12 = x2 - x1;
;;;290    	dy12 = y2 - y1;
;;;291    	
;;;292    	if(y1 == y2)
;;;293    	{
;;;294    		last = y1; 
;;;295    	}
;;;296      else
;;;297    	{
;;;298    		last = y1-1; 
;;;299    	}
;;;300    	for(y=y0; y<=last; y++) 
;;;301    	{
;;;302    		a = x0 + sa / dy01;
;;;303    		b = x0 + sb / dy02;
;;;304    		sa += dx01;
;;;305        sb += dx02;
;;;306        if(a > b)
;;;307        {
;;;308    			_swap(&a,&b);
;;;309    		}
;;;310    		LCD_Fill(a,y,b,y,POINT_COLOR);
;;;311    	}
;;;312    	sa = dx12 * (y - y1);
;;;313    	sb = dx02 * (y - y0);
;;;314    	for(; y<=y2; y++) 
;;;315    	{
;;;316    		a = x1 + sa / dy12;
;;;317    		b = x0 + sb / dy02;
;;;318    		sa += dx12;
;;;319    		sb += dx02;
;;;320    		if(a > b)
;;;321    		{
;;;322    			_swap(&a,&b);
;;;323    		}
;;;324    		LCD_Fill(a,y,b,y,POINT_COLOR);
;;;325    	}
;;;326    }
0000d6  b009              ADD      sp,sp,#0x24
0000d8  e8bd8ff0          POP      {r4-r11,pc}
                  |L2.220|
0000dc  f8bd001c          LDRH     r0,[sp,#0x1c]         ;285
0000e0  f8bd1014          LDRH     r1,[sp,#0x14]         ;285
0000e4  eba00b01          SUB      r11,r0,r1             ;285
0000e8  f8bd0020          LDRH     r0,[sp,#0x20]         ;286
0000ec  f8bd1018          LDRH     r1,[sp,#0x18]         ;286
0000f0  1a40              SUBS     r0,r0,r1              ;286
0000f2  9002              STR      r0,[sp,#8]            ;286
0000f4  f8bd0048          LDRH     r0,[sp,#0x48]         ;287
0000f8  f8bd1014          LDRH     r1,[sp,#0x14]         ;287
0000fc  1a45              SUBS     r5,r0,r1              ;287
0000fe  f8bd004c          LDRH     r0,[sp,#0x4c]         ;288
000102  f8bd1018          LDRH     r1,[sp,#0x18]         ;288
000106  eba00901          SUB      r9,r0,r1              ;288
00010a  f8bd0048          LDRH     r0,[sp,#0x48]         ;289
00010e  f8bd101c          LDRH     r1,[sp,#0x1c]         ;289
000112  eba00a01          SUB      r10,r0,r1             ;289
000116  f8bd004c          LDRH     r0,[sp,#0x4c]         ;290
00011a  f8bd1020          LDRH     r1,[sp,#0x20]         ;290
00011e  1a40              SUBS     r0,r0,r1              ;290
000120  9001              STR      r0,[sp,#4]            ;290
000122  f8bd0020          LDRH     r0,[sp,#0x20]         ;292
000126  f8bd104c          LDRH     r1,[sp,#0x4c]         ;292
00012a  4288              CMP      r0,r1                 ;292
00012c  d102              BNE      |L2.308|
00012e  f8bd8020          LDRH     r8,[sp,#0x20]         ;294
000132  e004              B        |L2.318|
                  |L2.308|
000134  f8bd0020          LDRH     r0,[sp,#0x20]         ;298
000138  1e40              SUBS     r0,r0,#1              ;298
00013a  fa1ff880          UXTH     r8,r0                 ;298
                  |L2.318|
00013e  f8bd4018          LDRH     r4,[sp,#0x18]         ;300
000142  e027              B        |L2.404|
                  |L2.324|
000144  9802              LDR      r0,[sp,#8]            ;302
000146  fb96f0f0          SDIV     r0,r6,r0              ;302
00014a  f8bd1014          LDRH     r1,[sp,#0x14]         ;302
00014e  4408              ADD      r0,r0,r1              ;302
000150  b280              UXTH     r0,r0                 ;302
000152  9004              STR      r0,[sp,#0x10]         ;302
000154  fb97f0f9          SDIV     r0,r7,r9              ;303
000158  f8bd1014          LDRH     r1,[sp,#0x14]         ;303
00015c  4408              ADD      r0,r0,r1              ;303
00015e  b280              UXTH     r0,r0                 ;303
000160  9003              STR      r0,[sp,#0xc]          ;303
000162  445e              ADD      r6,r6,r11             ;304
000164  442f              ADD      r7,r7,r5              ;305
000166  f8bd0010          LDRH     r0,[sp,#0x10]         ;306
00016a  f8bd100c          LDRH     r1,[sp,#0xc]          ;306
00016e  4288              CMP      r0,r1                 ;306
000170  dd03              BLE      |L2.378|
000172  a903              ADD      r1,sp,#0xc            ;308
000174  a804              ADD      r0,sp,#0x10           ;308
000176  f7fffffe          BL       _swap
                  |L2.378|
00017a  4824              LDR      r0,|L2.524|
00017c  8800              LDRH     r0,[r0,#0]            ;310  ; POINT_COLOR
00017e  4623              MOV      r3,r4                 ;310
000180  9000              STR      r0,[sp,#0]            ;310
000182  f8bd200c          LDRH     r2,[sp,#0xc]          ;310
000186  4621              MOV      r1,r4                 ;310
000188  f8bd0010          LDRH     r0,[sp,#0x10]         ;310
00018c  f7fffffe          BL       LCD_Fill
000190  1c60              ADDS     r0,r4,#1              ;300
000192  b284              UXTH     r4,r0                 ;300
                  |L2.404|
000194  4544              CMP      r4,r8                 ;300
000196  ddd5              BLE      |L2.324|
000198  f8bd0020          LDRH     r0,[sp,#0x20]         ;312
00019c  1a20              SUBS     r0,r4,r0              ;312
00019e  fb00f60a          MUL      r6,r0,r10             ;312
0001a2  f8bd0018          LDRH     r0,[sp,#0x18]         ;313
0001a6  1a20              SUBS     r0,r4,r0              ;313
0001a8  fb00f705          MUL      r7,r0,r5              ;313
0001ac  e027              B        |L2.510|
                  |L2.430|
0001ae  9801              LDR      r0,[sp,#4]            ;316
0001b0  fb96f0f0          SDIV     r0,r6,r0              ;316
0001b4  f8bd101c          LDRH     r1,[sp,#0x1c]         ;316
0001b8  4408              ADD      r0,r0,r1              ;316
0001ba  b280              UXTH     r0,r0                 ;316
0001bc  9004              STR      r0,[sp,#0x10]         ;316
0001be  fb97f0f9          SDIV     r0,r7,r9              ;317
0001c2  f8bd1014          LDRH     r1,[sp,#0x14]         ;317
0001c6  4408              ADD      r0,r0,r1              ;317
0001c8  b280              UXTH     r0,r0                 ;317
0001ca  9003              STR      r0,[sp,#0xc]          ;317
0001cc  4456              ADD      r6,r6,r10             ;318
0001ce  442f              ADD      r7,r7,r5              ;319
0001d0  f8bd0010          LDRH     r0,[sp,#0x10]         ;320
0001d4  f8bd100c          LDRH     r1,[sp,#0xc]          ;320
0001d8  4288              CMP      r0,r1                 ;320
0001da  dd03              BLE      |L2.484|
0001dc  a903              ADD      r1,sp,#0xc            ;322
0001de  a804              ADD      r0,sp,#0x10           ;322
0001e0  f7fffffe          BL       _swap
                  |L2.484|
0001e4  4809              LDR      r0,|L2.524|
0001e6  8800              LDRH     r0,[r0,#0]            ;324  ; POINT_COLOR
0001e8  4623              MOV      r3,r4                 ;324
0001ea  9000              STR      r0,[sp,#0]            ;324
0001ec  f8bd200c          LDRH     r2,[sp,#0xc]          ;324
0001f0  4621              MOV      r1,r4                 ;324
0001f2  f8bd0010          LDRH     r0,[sp,#0x10]         ;324
0001f6  f7fffffe          BL       LCD_Fill
0001fa  1c60              ADDS     r0,r4,#1              ;314
0001fc  b284              UXTH     r4,r0                 ;314
                  |L2.510|
0001fe  f8bd004c          LDRH     r0,[sp,#0x4c]         ;314
000202  4284              CMP      r4,r0                 ;314
000204  ddd3              BLE      |L2.430|
000206  bf00              NOP      
000208  e765              B        |L2.214|
;;;327    
                          ENDP

00020a  0000              DCW      0x0000
                  |L2.524|
                          DCD      POINT_COLOR

                          AREA ||i.GUI_DrawFont16||, CODE, READONLY, ALIGN=2

                  GUI_DrawFont16 PROC
;;;472    }
;;;473    void GUI_DrawFont16(u16 x, u16 y, u16 fc, u16 bc, u8 *s,u8 mode)
000000  e92d5ffc          PUSH     {r2-r12,lr}
;;;474    {
000004  4605              MOV      r5,r0
000006  4688              MOV      r8,r1
000008  4691              MOV      r9,r2
00000a  469a              MOV      r10,r3
00000c  f8ddb030          LDR      r11,[sp,#0x30]
;;;475       u8 i,j;
;;;476       u16 k;
;;;477       u16 HZnum;
;;;478       u16 x0=x;
000010  9500              STR      r5,[sp,#0]
;;;479       HZnum=sizeof(tfont16)/sizeof(typFNT_GB16);	//自动统计汉字数目
000012  2040              MOVS     r0,#0x40
000014  9001              STR      r0,[sp,#4]
;;;480       for (k=0;k<HZnum;k++) 
000016  2400              MOVS     r4,#0
000018  e05f              B        |L3.218|
                  |L3.26|
;;;481       {
;;;482           if((tfont16[k].Index[0]==*(s))&&(tfont16[k].Index[1]==*(s+1)))
00001a  eb041004          ADD      r0,r4,r4,LSL #4
00001e  4937              LDR      r1,|L3.252|
000020  f8110010          LDRB     r0,[r1,r0,LSL #1]
000024  f89b1000          LDRB     r1,[r11,#0]
000028  4288              CMP      r0,r1
00002a  d153              BNE      |L3.212|
00002c  eb041004          ADD      r0,r4,r4,LSL #4
000030  4932              LDR      r1,|L3.252|
000032  eb010040          ADD      r0,r1,r0,LSL #1
000036  7840              LDRB     r0,[r0,#1]
000038  f89b1001          LDRB     r1,[r11,#1]
00003c  4288              CMP      r0,r1
00003e  d149              BNE      |L3.212|
;;;483           { 	
;;;484               LCD_SetWindows(x,y,x+16-1,y+16-1);
000040  f108000f          ADD      r0,r8,#0xf
000044  b283              UXTH     r3,r0
000046  f105000f          ADD      r0,r5,#0xf
00004a  b282              UXTH     r2,r0
00004c  4641              MOV      r1,r8
00004e  4628              MOV      r0,r5
000050  f7fffffe          BL       LCD_SetWindows
;;;485    	   for(i=0;i<16*2;i++)
000054  2600              MOVS     r6,#0
000056  e03b              B        |L3.208|
                  |L3.88|
;;;486               {
;;;487    		for(j=0;j<8;j++)
000058  2700              MOVS     r7,#0
00005a  e034              B        |L3.198|
                  |L3.92|
;;;488    		{	
;;;489    		     if(!mode) //非叠加模式：字体带有背景色，显示时会将原来显示的内容覆盖掉
00005c  980d              LDR      r0,[sp,#0x34]
00005e  b990              CBNZ     r0,|L3.134|
;;;490    		     {
;;;491    			  if(tfont16[k].Msk[i]&(0x80>>j))
000060  eb041004          ADD      r0,r4,r4,LSL #4
000064  4925              LDR      r1,|L3.252|
000066  eb010040          ADD      r0,r1,r0,LSL #1
00006a  1c80              ADDS     r0,r0,#2
00006c  5d80              LDRB     r0,[r0,r6]
00006e  2180              MOVS     r1,#0x80
000070  4139              ASRS     r1,r1,r7
000072  4008              ANDS     r0,r0,r1
000074  b118              CBZ      r0,|L3.126|
;;;492                              {	
;;;493                                   Lcd_WriteData_16Bit(fc);
000076  4648              MOV      r0,r9
000078  f7fffffe          BL       Lcd_WriteData_16Bit
00007c  e021              B        |L3.194|
                  |L3.126|
;;;494                              }			  
;;;495                              else 
;;;496                              {
;;;497                                   Lcd_WriteData_16Bit(bc);
00007e  4650              MOV      r0,r10
000080  f7fffffe          BL       Lcd_WriteData_16Bit
000084  e01d              B        |L3.194|
                  |L3.134|
;;;498    			  }
;;;499    		     }
;;;500    		     else //叠加模式：字体不带背景色，直接叠加显示到原来显示的内容上
;;;501    		     {
;;;502    			  POINT_COLOR=fc;
000086  481e              LDR      r0,|L3.256|
000088  f8a09000          STRH     r9,[r0,#0]
;;;503    			  if(tfont16[k].Msk[i]&(0x80>>j))						
00008c  eb041004          ADD      r0,r4,r4,LSL #4
000090  491a              LDR      r1,|L3.252|
000092  eb010040          ADD      r0,r1,r0,LSL #1
000096  1c80              ADDS     r0,r0,#2
000098  5d80              LDRB     r0,[r0,r6]
00009a  2180              MOVS     r1,#0x80
00009c  4139              ASRS     r1,r1,r7
00009e  4008              ANDS     r0,r0,r1
0000a0  b118              CBZ      r0,|L3.170|
;;;504                              {
;;;505                                   LCD_DrawPoint(x,y);//画一个点
0000a2  4641              MOV      r1,r8
0000a4  4628              MOV      r0,r5
0000a6  f7fffffe          BL       LCD_DrawPoint
                  |L3.170|
;;;506    			  }
;;;507    			  x++;
0000aa  1c68              ADDS     r0,r5,#1
0000ac  b285              UXTH     r5,r0
;;;508    			  if((x-x0)==16)
0000ae  9800              LDR      r0,[sp,#0]
0000b0  1a28              SUBS     r0,r5,r0
0000b2  2810              CMP      r0,#0x10
0000b4  d105              BNE      |L3.194|
;;;509    			  {
;;;510    			       x=x0;
0000b6  9d00              LDR      r5,[sp,#0]
;;;511    			       y++;
0000b8  f1080001          ADD      r0,r8,#1
0000bc  fa1ff880          UXTH     r8,r0
;;;512    			       break;
0000c0  e003              B        |L3.202|
                  |L3.194|
0000c2  1c78              ADDS     r0,r7,#1              ;487
0000c4  b2c7              UXTB     r7,r0                 ;487
                  |L3.198|
0000c6  2f08              CMP      r7,#8                 ;487
0000c8  dbc8              BLT      |L3.92|
                  |L3.202|
0000ca  bf00              NOP      
0000cc  1c70              ADDS     r0,r6,#1              ;485
0000ce  b2c6              UXTB     r6,r0                 ;485
                  |L3.208|
0000d0  2e20              CMP      r6,#0x20              ;485
0000d2  dbc1              BLT      |L3.88|
                  |L3.212|
;;;513    			  }
;;;514    		     }
;;;515    	        }
;;;516    	    }
;;;517    	 }				  	
;;;518    	 continue;  //找到对应点阵字库立即退出，防止多个汉字重复取模带来影响
0000d4  bf00              NOP      
0000d6  1c60              ADDS     r0,r4,#1              ;480
0000d8  b284              UXTH     r4,r0                 ;480
                  |L3.218|
0000da  9801              LDR      r0,[sp,#4]            ;480
0000dc  4284              CMP      r4,r0                 ;480
0000de  db9c              BLT      |L3.26|
;;;519        }
;;;520        LCD_SetWindows(0,0,lcddev.width-1,lcddev.height-1);//恢复窗口为全屏 
0000e0  4808              LDR      r0,|L3.260|
0000e2  8840              LDRH     r0,[r0,#2]  ; lcddev
0000e4  1e40              SUBS     r0,r0,#1
0000e6  b283              UXTH     r3,r0
0000e8  4806              LDR      r0,|L3.260|
0000ea  8800              LDRH     r0,[r0,#0]  ; lcddev
0000ec  1e40              SUBS     r0,r0,#1
0000ee  b282              UXTH     r2,r0
0000f0  2100              MOVS     r1,#0
0000f2  4608              MOV      r0,r1
0000f4  f7fffffe          BL       LCD_SetWindows
;;;521    }
0000f8  e8bd9ffc          POP      {r2-r12,pc}
                          ENDP

                  |L3.252|
                          DCD      tfont16
                  |L3.256|
                          DCD      POINT_COLOR
                  |L3.260|
                          DCD      lcddev

                          AREA ||i.GUI_DrawPoint||, CODE, READONLY, ALIGN=1

                  GUI_DrawPoint PROC
;;;14     ********************************************************************/
;;;15     void GUI_DrawPoint(u16 x,u16 y,u16 color)
000000  b570              PUSH     {r4-r6,lr}
;;;16     {
000002  4605              MOV      r5,r0
000004  460e              MOV      r6,r1
000006  4614              MOV      r4,r2
;;;17     	LCD_SetCursor(x,y);//设置光标位置 
000008  4631              MOV      r1,r6
00000a  4628              MOV      r0,r5
00000c  f7fffffe          BL       LCD_SetCursor
;;;18     	Lcd_WriteData_16Bit(color); 
000010  4620              MOV      r0,r4
000012  f7fffffe          BL       Lcd_WriteData_16Bit
;;;19     }
000016  bd70              POP      {r4-r6,pc}
;;;20     
                          ENDP


                          AREA ||i.LCD_Draw16BitBMP||, CODE, READONLY, ALIGN=2

                  LCD_Draw16BitBMP PROC
;;;459    ******************************************************************************/ 
;;;460    void LCD_Draw16BitBMP(u16 x,u16 y,const unsigned char *p)
000000  e92d47f0          PUSH     {r4-r10,lr}
;;;461    {
000004  4606              MOV      r6,r0
000006  460f              MOV      r7,r1
000008  4615              MOV      r5,r2
;;;462      	int i; 
;;;463    	unsigned char picH,picL; 
;;;464    	LCD_SetWindows(x,y,x+40-1,y+40-1);//窗口设置
00000a  f1070027          ADD      r0,r7,#0x27
00000e  b283              UXTH     r3,r0
000010  f1060027          ADD      r0,r6,#0x27
000014  b282              UXTH     r2,r0
000016  4639              MOV      r1,r7
000018  4630              MOV      r0,r6
00001a  f7fffffe          BL       LCD_SetWindows
;;;465        for(i=0;i<40*40;i++)
00001e  2400              MOVS     r4,#0
000020  e00a              B        |L5.56|
                  |L5.34|
;;;466    	{	
;;;467    	 	picL=*(p+i*2);	//数据低位在前
000022  f8159014          LDRB     r9,[r5,r4,LSL #1]
;;;468    		picH=*(p+i*2+1);				
000026  eb050044          ADD      r0,r5,r4,LSL #1
00002a  f8908001          LDRB     r8,[r0,#1]
;;;469    		Lcd_WriteData_16Bit(picH<<8|picL);  						
00002e  ea492008          ORR      r0,r9,r8,LSL #8
000032  f7fffffe          BL       Lcd_WriteData_16Bit
000036  1c64              ADDS     r4,r4,#1              ;465
                  |L5.56|
000038  f5b46fc8          CMP      r4,#0x640             ;465
00003c  dbf1              BLT      |L5.34|
;;;470    	}	
;;;471    	LCD_SetWindows(0,0,lcddev.width-1,lcddev.height-1);//恢复显示窗口为全屏	
00003e  4807              LDR      r0,|L5.92|
000040  8840              LDRH     r0,[r0,#2]  ; lcddev
000042  1e40              SUBS     r0,r0,#1
000044  b283              UXTH     r3,r0
000046  4805              LDR      r0,|L5.92|
000048  8800              LDRH     r0,[r0,#0]  ; lcddev
00004a  1e40              SUBS     r0,r0,#1
00004c  b282              UXTH     r2,r0
00004e  2100              MOVS     r1,#0
000050  4608              MOV      r0,r1
000052  f7fffffe          BL       LCD_SetWindows
;;;472    }
000056  e8bd87f0          POP      {r4-r10,pc}
;;;473    void GUI_DrawFont16(u16 x, u16 y, u16 fc, u16 bc, u8 *s,u8 mode)
                          ENDP

00005a  0000              DCW      0x0000
                  |L5.92|
                          DCD      lcddev

                          AREA ||i.LCD_DrawCircle||, CODE, READONLY, ALIGN=1

                  LCD_DrawCircle PROC
;;;164    ******************************************************************************/  
;;;165    void LCD_DrawCircle(int xc, int yc,u16 c,int r, int fill)
000000  e92d4fff          PUSH     {r0-r11,lr}
;;;166    {
000004  b081              SUB      sp,sp,#4
000006  4682              MOV      r10,r0
000008  4617              MOV      r7,r2
00000a  4698              MOV      r8,r3
00000c  f8ddb038          LDR      r11,[sp,#0x38]
;;;167    	int x = 0, y = r, yi, d;
000010  2400              MOVS     r4,#0
000012  4645              MOV      r5,r8
;;;168    
;;;169    	d = 3 - 2 * r;
000014  ea4f0048          LSL      r0,r8,#1
000018  f1c00603          RSB      r6,r0,#3
;;;170    
;;;171    
;;;172    	if (fill) 
00001c  f1bb0f00          CMP      r11,#0
000020  d01f              BEQ      |L6.98|
;;;173    	{
;;;174    		// 如果填充（画实心圆）
;;;175    		while (x <= y) {
000022  e01b              B        |L6.92|
                  |L6.36|
;;;176    			for (yi = x; yi <= y; yi++)
000024  46a1              MOV      r9,r4
000026  e008              B        |L6.58|
                  |L6.40|
;;;177    				_draw_circle_8(xc, yc, x, yi, c);
000028  464b              MOV      r3,r9
00002a  4622              MOV      r2,r4
00002c  9700              STR      r7,[sp,#0]
00002e  4650              MOV      r0,r10
000030  9902              LDR      r1,[sp,#8]
000032  f7fffffe          BL       _draw_circle_8
000036  f1090901          ADD      r9,r9,#1              ;176
                  |L6.58|
00003a  45a9              CMP      r9,r5                 ;176
00003c  ddf4              BLE      |L6.40|
;;;178    
;;;179    			if (d < 0) {
00003e  2e00              CMP      r6,#0
000040  da04              BGE      |L6.76|
;;;180    				d = d + 4 * x + 6;
000042  2004              MOVS     r0,#4
000044  fb006004          MLA      r0,r0,r4,r6
000048  1d86              ADDS     r6,r0,#6
00004a  e006              B        |L6.90|
                  |L6.76|
;;;181    			} else {
;;;182    				d = d + 4 * (x - y) + 10;
00004c  1b60              SUBS     r0,r4,r5
00004e  2104              MOVS     r1,#4
000050  fb016000          MLA      r0,r1,r0,r6
000054  f100060a          ADD      r6,r0,#0xa
;;;183    				y--;
000058  1e6d              SUBS     r5,r5,#1
                  |L6.90|
;;;184    			}
;;;185    			x++;
00005a  1c64              ADDS     r4,r4,#1
                  |L6.92|
00005c  42ac              CMP      r4,r5                 ;175
00005e  dde1              BLE      |L6.36|
000060  e018              B        |L6.148|
                  |L6.98|
;;;186    		}
;;;187    	} else 
;;;188    	{
;;;189    		// 如果不填充（画空心圆）
;;;190    		while (x <= y) {
000062  e015              B        |L6.144|
                  |L6.100|
;;;191    			_draw_circle_8(xc, yc, x, y, c);
000064  462b              MOV      r3,r5
000066  4622              MOV      r2,r4
000068  9700              STR      r7,[sp,#0]
00006a  4650              MOV      r0,r10
00006c  9902              LDR      r1,[sp,#8]
00006e  f7fffffe          BL       _draw_circle_8
;;;192    			if (d < 0) {
000072  2e00              CMP      r6,#0
000074  da04              BGE      |L6.128|
;;;193    				d = d + 4 * x + 6;
000076  2004              MOVS     r0,#4
000078  fb006004          MLA      r0,r0,r4,r6
00007c  1d86              ADDS     r6,r0,#6
00007e  e006              B        |L6.142|
                  |L6.128|
;;;194    			} else {
;;;195    				d = d + 4 * (x - y) + 10;
000080  1b60              SUBS     r0,r4,r5
000082  2104              MOVS     r1,#4
000084  fb016000          MLA      r0,r1,r0,r6
000088  f100060a          ADD      r6,r0,#0xa
;;;196    				y--;
00008c  1e6d              SUBS     r5,r5,#1
                  |L6.142|
;;;197    			}
;;;198    			x++;
00008e  1c64              ADDS     r4,r4,#1
                  |L6.144|
000090  42ac              CMP      r4,r5                 ;190
000092  dde7              BLE      |L6.100|
                  |L6.148|
;;;199    		}
;;;200    	}
;;;201    }
000094  b005              ADD      sp,sp,#0x14
000096  e8bd8ff0          POP      {r4-r11,pc}
;;;202    
                          ENDP


                          AREA ||i.LCD_DrawFillRectangle||, CODE, READONLY, ALIGN=2

                  LCD_DrawFillRectangle PROC
;;;119    ******************************************************************************/  
;;;120    void LCD_DrawFillRectangle(u16 x1, u16 y1, u16 x2, u16 y2)
000000  b5f8              PUSH     {r3-r7,lr}
;;;121    {
000002  4604              MOV      r4,r0
000004  460d              MOV      r5,r1
000006  4616              MOV      r6,r2
000008  461f              MOV      r7,r3
;;;122    	LCD_Fill(x1,y1,x2,y2,POINT_COLOR);
00000a  4805              LDR      r0,|L7.32|
00000c  8800              LDRH     r0,[r0,#0]  ; POINT_COLOR
00000e  463b              MOV      r3,r7
000010  4632              MOV      r2,r6
000012  4629              MOV      r1,r5
000014  9000              STR      r0,[sp,#0]
000016  4620              MOV      r0,r4
000018  f7fffffe          BL       LCD_Fill
;;;123    }
00001c  bdf8              POP      {r3-r7,pc}
;;;124     
                          ENDP

00001e  0000              DCW      0x0000
                  |L7.32|
                          DCD      POINT_COLOR

                          AREA ||i.LCD_DrawLine||, CODE, READONLY, ALIGN=1

                  LCD_DrawLine PROC
;;;55     ********************************************************************/
;;;56     void LCD_DrawLine(u16 x1, u16 y1, u16 x2, u16 y2)
000000  e92d4fff          PUSH     {r0-r11,lr}
;;;57     {
000004  b085              SUB      sp,sp,#0x14
000006  4681              MOV      r9,r0
000008  468a              MOV      r10,r1
;;;58     	u16 t; 
;;;59     	int xerr=0,yerr=0,delta_x,delta_y,distance; 
00000a  2000              MOVS     r0,#0
00000c  9004              STR      r0,[sp,#0x10]
00000e  9003              STR      r0,[sp,#0xc]
;;;60     	int incx,incy,uRow,uCol; 
;;;61     
;;;62     	delta_x=x2-x1; //计算坐标增量 
000010  9807              LDR      r0,[sp,#0x1c]
000012  eba00509          SUB      r5,r0,r9
;;;63     	delta_y=y2-y1; 
000016  9808              LDR      r0,[sp,#0x20]
000018  eba0060a          SUB      r6,r0,r10
;;;64     	uRow=x1; 
00001c  f8cd9008          STR      r9,[sp,#8]
;;;65     	uCol=y1; 
000020  f8cda004          STR      r10,[sp,#4]
;;;66     	if(delta_x>0)incx=1; //设置单步方向 
000024  2d00              CMP      r5,#0
000026  dd01              BLE      |L8.44|
000028  2701              MOVS     r7,#1
00002a  e005              B        |L8.56|
                  |L8.44|
;;;67     	else if(delta_x==0)incx=0;//垂直线 
00002c  b90d              CBNZ     r5,|L8.50|
00002e  2700              MOVS     r7,#0
000030  e002              B        |L8.56|
                  |L8.50|
;;;68     	else {incx=-1;delta_x=-delta_x;} 
000032  f04f37ff          MOV      r7,#0xffffffff
000036  426d              RSBS     r5,r5,#0
                  |L8.56|
;;;69     	if(delta_y>0)incy=1; 
000038  2e00              CMP      r6,#0
00003a  dd02              BLE      |L8.66|
00003c  f04f0801          MOV      r8,#1
000040  e006              B        |L8.80|
                  |L8.66|
;;;70     	else if(delta_y==0)incy=0;//水平线 
000042  b916              CBNZ     r6,|L8.74|
000044  f04f0800          MOV      r8,#0
000048  e002              B        |L8.80|
                  |L8.74|
;;;71     	else{incy=-1;delta_y=-delta_y;} 
00004a  f04f38ff          MOV      r8,#0xffffffff
00004e  4276              RSBS     r6,r6,#0
                  |L8.80|
;;;72     	if( delta_x>delta_y)distance=delta_x; //选取基本增量坐标轴 
000050  42b5              CMP      r5,r6
000052  dd01              BLE      |L8.88|
000054  462c              MOV      r4,r5
000056  e000              B        |L8.90|
                  |L8.88|
;;;73     	else distance=delta_y; 
000058  4634              MOV      r4,r6
                  |L8.90|
;;;74     	for(t=0;t<=distance+1;t++ )//画线输出 
00005a  f04f0b00          MOV      r11,#0
00005e  e021              B        |L8.164|
                  |L8.96|
;;;75     	{  
;;;76     		LCD_DrawPoint(uRow,uCol);//画点 
000060  9a01              LDR      r2,[sp,#4]
000062  b291              UXTH     r1,r2
000064  9a02              LDR      r2,[sp,#8]
000066  b290              UXTH     r0,r2
000068  f7fffffe          BL       LCD_DrawPoint
;;;77     		xerr+=delta_x ; 
00006c  9804              LDR      r0,[sp,#0x10]
00006e  4428              ADD      r0,r0,r5
000070  9004              STR      r0,[sp,#0x10]
;;;78     		yerr+=delta_y ; 
000072  9803              LDR      r0,[sp,#0xc]
000074  4430              ADD      r0,r0,r6
000076  9003              STR      r0,[sp,#0xc]
;;;79     		if(xerr>distance) 
000078  9804              LDR      r0,[sp,#0x10]
00007a  42a0              CMP      r0,r4
00007c  dd05              BLE      |L8.138|
;;;80     		{ 
;;;81     			xerr-=distance; 
00007e  9804              LDR      r0,[sp,#0x10]
000080  1b00              SUBS     r0,r0,r4
000082  9004              STR      r0,[sp,#0x10]
;;;82     			uRow+=incx; 
000084  9802              LDR      r0,[sp,#8]
000086  4438              ADD      r0,r0,r7
000088  9002              STR      r0,[sp,#8]
                  |L8.138|
;;;83     		} 
;;;84     		if(yerr>distance) 
00008a  9803              LDR      r0,[sp,#0xc]
00008c  42a0              CMP      r0,r4
00008e  dd05              BLE      |L8.156|
;;;85     		{ 
;;;86     			yerr-=distance; 
000090  9803              LDR      r0,[sp,#0xc]
000092  1b00              SUBS     r0,r0,r4
000094  9003              STR      r0,[sp,#0xc]
;;;87     			uCol+=incy; 
000096  9801              LDR      r0,[sp,#4]
000098  4440              ADD      r0,r0,r8
00009a  9001              STR      r0,[sp,#4]
                  |L8.156|
00009c  f10b0001          ADD      r0,r11,#1             ;74
0000a0  fa1ffb80          UXTH     r11,r0                ;74
                  |L8.164|
0000a4  1c60              ADDS     r0,r4,#1              ;74
0000a6  4583              CMP      r11,r0                ;74
0000a8  ddda              BLE      |L8.96|
;;;88     		} 
;;;89     	}  
;;;90     } 
0000aa  b009              ADD      sp,sp,#0x24
0000ac  e8bd8ff0          POP      {r4-r11,pc}
;;;91     
                          ENDP


                          AREA ||i.LCD_DrawRectangle||, CODE, READONLY, ALIGN=1

                  LCD_DrawRectangle PROC
;;;101    ******************************************************************************/
;;;102    void LCD_DrawRectangle(u16 x1, u16 y1, u16 x2, u16 y2)
000000  e92d41f0          PUSH     {r4-r8,lr}
;;;103    {
000004  4604              MOV      r4,r0
000006  460d              MOV      r5,r1
000008  4616              MOV      r6,r2
00000a  461f              MOV      r7,r3
;;;104    	LCD_DrawLine(x1,y1,x2,y1);
00000c  462b              MOV      r3,r5
00000e  4632              MOV      r2,r6
000010  4629              MOV      r1,r5
000012  4620              MOV      r0,r4
000014  f7fffffe          BL       LCD_DrawLine
;;;105    	LCD_DrawLine(x1,y1,x1,y2);
000018  463b              MOV      r3,r7
00001a  4622              MOV      r2,r4
00001c  4629              MOV      r1,r5
00001e  4620              MOV      r0,r4
000020  f7fffffe          BL       LCD_DrawLine
;;;106    	LCD_DrawLine(x1,y2,x2,y2);
000024  463b              MOV      r3,r7
000026  4632              MOV      r2,r6
000028  4639              MOV      r1,r7
00002a  4620              MOV      r0,r4
00002c  f7fffffe          BL       LCD_DrawLine
;;;107    	LCD_DrawLine(x2,y1,x2,y2);
000030  463b              MOV      r3,r7
000032  4632              MOV      r2,r6
000034  4629              MOV      r1,r5
000036  4630              MOV      r0,r6
000038  f7fffffe          BL       LCD_DrawLine
;;;108    }  
00003c  e8bd81f0          POP      {r4-r8,pc}
;;;109    
                          ENDP


                          AREA ||i.LCD_Fill||, CODE, READONLY, ALIGN=2

                  LCD_Fill PROC
;;;31     ********************************************************************/
;;;32     void LCD_Fill(u16 sx,u16 sy,u16 ex,u16 ey,u16 color)
000000  e92d5ff0          PUSH     {r4-r12,lr}
;;;33     {  	
000004  4604              MOV      r4,r0
000006  460d              MOV      r5,r1
000008  4616              MOV      r6,r2
00000a  461f              MOV      r7,r3
;;;34     	u16 i,j;			
;;;35     	u16 width=ex-sx+1; 		//得到填充的宽度
00000c  1b30              SUBS     r0,r6,r4
00000e  1c40              ADDS     r0,r0,#1
000010  fa1ffa80          UXTH     r10,r0
;;;36     	u16 height=ey-sy+1;		//高度
000014  1b78              SUBS     r0,r7,r5
000016  1c40              ADDS     r0,r0,#1
000018  fa1ffb80          UXTH     r11,r0
;;;37     	LCD_SetWindows(sx,sy,ex,ey);//设置显示窗口
00001c  463b              MOV      r3,r7
00001e  4632              MOV      r2,r6
000020  4629              MOV      r1,r5
000022  4620              MOV      r0,r4
000024  f7fffffe          BL       LCD_SetWindows
;;;38     	for(i=0;i<height;i++)
000028  f04f0800          MOV      r8,#0
00002c  e00f              B        |L10.78|
                  |L10.46|
;;;39     	{
;;;40     		for(j=0;j<width;j++)
00002e  f04f0900          MOV      r9,#0
000032  e006              B        |L10.66|
                  |L10.52|
;;;41     		Lcd_WriteData_16Bit(color);	//写入数据 	 
000034  980a              LDR      r0,[sp,#0x28]
000036  f7fffffe          BL       Lcd_WriteData_16Bit
00003a  f1090001          ADD      r0,r9,#1              ;40
00003e  fa1ff980          UXTH     r9,r0                 ;40
                  |L10.66|
000042  45d1              CMP      r9,r10                ;40
000044  dbf6              BLT      |L10.52|
000046  f1080001          ADD      r0,r8,#1              ;38
00004a  fa1ff880          UXTH     r8,r0                 ;38
                  |L10.78|
00004e  45d8              CMP      r8,r11                ;38
000050  dbed              BLT      |L10.46|
;;;42     	}
;;;43     	LCD_SetWindows(0,0,lcddev.width-1,lcddev.height-1);//恢复窗口设置为全屏
000052  4807              LDR      r0,|L10.112|
000054  8840              LDRH     r0,[r0,#2]  ; lcddev
000056  1e40              SUBS     r0,r0,#1
000058  b283              UXTH     r3,r0
00005a  4805              LDR      r0,|L10.112|
00005c  8800              LDRH     r0,[r0,#0]  ; lcddev
00005e  1e40              SUBS     r0,r0,#1
000060  b282              UXTH     r2,r0
000062  2100              MOVS     r1,#0
000064  4608              MOV      r0,r1
000066  f7fffffe          BL       LCD_SetWindows
;;;44     }
00006a  e8bd9ff0          POP      {r4-r12,pc}
;;;45     
                          ENDP

00006e  0000              DCW      0x0000
                  |L10.112|
                          DCD      lcddev

                          AREA ||i.LCD_ShowChar||, CODE, READONLY, ALIGN=2

                  LCD_ShowChar PROC
;;;340    ******************************************************************************/ 
;;;341    void LCD_ShowChar(u16 x,u16 y,u16 fc, u16 bc, u8 num,u8 size,u8 mode)
000000  e92d4fff          PUSH     {r0-r11,lr}
;;;342    {  
000004  b083              SUB      sp,sp,#0xc
000006  4681              MOV      r9,r0
000008  468a              MOV      r10,r1
00000a  4693              MOV      r11,r2
00000c  e9dd6410          LDRD     r6,r4,[sp,#0x40]
;;;343        u8 temp;
;;;344        u8 pos,t;
;;;345    	u16 colortemp=POINT_COLOR;      
000010  4840              LDR      r0,|L11.276|
000012  8800              LDRH     r0,[r0,#0]  ; POINT_COLOR
000014  9002              STR      r0,[sp,#8]
;;;346    		   
;;;347    	num=num-' ';//得到偏移后的值
000016  f1a60020          SUB      r0,r6,#0x20
00001a  b2c6              UXTB     r6,r0
;;;348    	LCD_SetWindows(x,y,x+size/2-1,y+size-1);//设置单个文字显示窗口
00001c  eb0470d4          ADD      r0,r4,r4,LSR #31
000020  eb090060          ADD      r0,r9,r0,ASR #1
000024  1e40              SUBS     r0,r0,#1
000026  b282              UXTH     r2,r0
000028  eb0a0004          ADD      r0,r10,r4
00002c  1e40              SUBS     r0,r0,#1
00002e  b283              UXTH     r3,r0
000030  4651              MOV      r1,r10
000032  4648              MOV      r0,r9
000034  9401              STR      r4,[sp,#4]
000036  f7fffffe          BL       LCD_SetWindows
;;;349    	if(!mode) //非叠加方式
00003a  9812              LDR      r0,[sp,#0x48]
00003c  bb50              CBNZ     r0,|L11.148|
;;;350    	{		
;;;351    		for(pos=0;pos<size;pos++)
00003e  2500              MOVS     r5,#0
000040  e025              B        |L11.142|
                  |L11.66|
;;;352    		{
;;;353    			if(size==12)temp=asc2_1206[num][pos];//调用1206字体
000042  2c0c              CMP      r4,#0xc
000044  d107              BNE      |L11.86|
000046  eb060046          ADD      r0,r6,r6,LSL #1
00004a  4933              LDR      r1,|L11.280|
00004c  eb010080          ADD      r0,r1,r0,LSL #2
000050  f8108005          LDRB     r8,[r0,r5]
000054  e004              B        |L11.96|
                  |L11.86|
;;;354    			else temp=asc2_1608[num][pos];		 //调用1608字体
000056  4831              LDR      r0,|L11.284|
000058  eb001006          ADD      r0,r0,r6,LSL #4
00005c  f8108005          LDRB     r8,[r0,r5]
                  |L11.96|
;;;355    			for(t=0;t<size/2;t++)
000060  2700              MOVS     r7,#0
000062  e00d              B        |L11.128|
                  |L11.100|
;;;356    		    {                 
;;;357    		        if(temp&0x01)Lcd_WriteData_16Bit(fc); 
000064  f0080001          AND      r0,r8,#1
000068  b118              CBZ      r0,|L11.114|
00006a  4658              MOV      r0,r11
00006c  f7fffffe          BL       Lcd_WriteData_16Bit
000070  e002              B        |L11.120|
                  |L11.114|
;;;358    				else Lcd_WriteData_16Bit(bc); 
000072  9806              LDR      r0,[sp,#0x18]
000074  f7fffffe          BL       Lcd_WriteData_16Bit
                  |L11.120|
;;;359    				temp>>=1; 
000078  ea4f0868          ASR      r8,r8,#1
00007c  1c78              ADDS     r0,r7,#1              ;355
00007e  b2c7              UXTB     r7,r0                 ;355
                  |L11.128|
000080  eb0471d4          ADD      r1,r4,r4,LSR #31      ;355
000084  ebb70f61          CMP      r7,r1,ASR #1          ;355
000088  dbec              BLT      |L11.100|
00008a  1c68              ADDS     r0,r5,#1              ;351
00008c  b2c5              UXTB     r5,r0                 ;351
                  |L11.142|
00008e  42a5              CMP      r5,r4                 ;351
000090  dbd7              BLT      |L11.66|
000092  e02d              B        |L11.240|
                  |L11.148|
;;;360    				
;;;361    		    }
;;;362    			
;;;363    		}	
;;;364    	}else//叠加方式
;;;365    	{
;;;366    		for(pos=0;pos<size;pos++)
000094  2500              MOVS     r5,#0
000096  e029              B        |L11.236|
                  |L11.152|
;;;367    		{
;;;368    			if(size==12)temp=asc2_1206[num][pos];//调用1206字体
000098  2c0c              CMP      r4,#0xc
00009a  d107              BNE      |L11.172|
00009c  eb060046          ADD      r0,r6,r6,LSL #1
0000a0  491d              LDR      r1,|L11.280|
0000a2  eb010080          ADD      r0,r1,r0,LSL #2
0000a6  f8108005          LDRB     r8,[r0,r5]
0000aa  e004              B        |L11.182|
                  |L11.172|
;;;369    			else temp=asc2_1608[num][pos];		 //调用1608字体
0000ac  481b              LDR      r0,|L11.284|
0000ae  eb001006          ADD      r0,r0,r6,LSL #4
0000b2  f8108005          LDRB     r8,[r0,r5]
                  |L11.182|
;;;370    			for(t=0;t<size/2;t++)
0000b6  2700              MOVS     r7,#0
0000b8  e011              B        |L11.222|
                  |L11.186|
;;;371    		    {   
;;;372    				POINT_COLOR=fc;              
0000ba  4816              LDR      r0,|L11.276|
0000bc  f8a0b000          STRH     r11,[r0,#0]
;;;373    		        if(temp&0x01)LCD_DrawPoint(x+t,y+pos);//画一个点    
0000c0  f0080001          AND      r0,r8,#1
0000c4  b138              CBZ      r0,|L11.214|
0000c6  eb0a0205          ADD      r2,r10,r5
0000ca  b291              UXTH     r1,r2
0000cc  eb090207          ADD      r2,r9,r7
0000d0  b290              UXTH     r0,r2
0000d2  f7fffffe          BL       LCD_DrawPoint
                  |L11.214|
;;;374    		        temp>>=1; 
0000d6  ea4f0868          ASR      r8,r8,#1
0000da  1c78              ADDS     r0,r7,#1              ;370
0000dc  b2c7              UXTB     r7,r0                 ;370
                  |L11.222|
0000de  eb0471d4          ADD      r1,r4,r4,LSR #31      ;370
0000e2  ebb70f61          CMP      r7,r1,ASR #1          ;370
0000e6  dbe8              BLT      |L11.186|
0000e8  1c68              ADDS     r0,r5,#1              ;366
0000ea  b2c5              UXTB     r5,r0                 ;366
                  |L11.236|
0000ec  42a5              CMP      r5,r4                 ;366
0000ee  dbd3              BLT      |L11.152|
                  |L11.240|
;;;375    		    }
;;;376    		}
;;;377    	}
;;;378    	POINT_COLOR=colortemp;	
0000f0  4908              LDR      r1,|L11.276|
0000f2  9802              LDR      r0,[sp,#8]
0000f4  8008              STRH     r0,[r1,#0]
;;;379    	LCD_SetWindows(0,0,lcddev.width-1,lcddev.height-1);//恢复窗口为全屏    	   	 	  
0000f6  480a              LDR      r0,|L11.288|
0000f8  8840              LDRH     r0,[r0,#2]  ; lcddev
0000fa  1e40              SUBS     r0,r0,#1
0000fc  b283              UXTH     r3,r0
0000fe  4808              LDR      r0,|L11.288|
000100  8800              LDRH     r0,[r0,#0]  ; lcddev
000102  1e40              SUBS     r0,r0,#1
000104  b282              UXTH     r2,r0
000106  2100              MOVS     r1,#0
000108  4608              MOV      r0,r1
00010a  f7fffffe          BL       LCD_SetWindows
;;;380    }
00010e  b007              ADD      sp,sp,#0x1c
000110  e8bd8ff0          POP      {r4-r11,pc}
;;;381    
                          ENDP

                  |L11.276|
                          DCD      POINT_COLOR
                  |L11.280|
                          DCD      asc2_1206
                  |L11.284|
                          DCD      asc2_1608
                  |L11.288|
                          DCD      lcddev

                          AREA ||i.LCD_ShowNum||, CODE, READONLY, ALIGN=2

                  LCD_ShowNum PROC
;;;430    ******************************************************************************/  			 
;;;431    void LCD_ShowNum(u16 x,u16 y,u32 num,u8 len,u8 size)
000000  e92d4fff          PUSH     {r0-r11,lr}
;;;432    {         	
000004  b083              SUB      sp,sp,#0xc
000006  4607              MOV      r7,r0
000008  4691              MOV      r9,r2
00000a  461e              MOV      r6,r3
00000c  9c10              LDR      r4,[sp,#0x40]
;;;433    	u8 t,temp;
;;;434    	u8 enshow=0;						   
00000e  f04f0a00          MOV      r10,#0
;;;435    	for(t=0;t<len;t++)
000012  2500              MOVS     r5,#0
000014  e043              B        |L12.158|
                  |L12.22|
;;;436    	{
;;;437    		temp=(num/mypow(10,len-t-1))%10;
000016  1b70              SUBS     r0,r6,r5
000018  1e40              SUBS     r0,r0,#1
00001a  b2c1              UXTB     r1,r0
00001c  200a              MOVS     r0,#0xa
00001e  f7fffffe          BL       mypow
000022  fbb9f0f0          UDIV     r0,r9,r0
000026  210a              MOVS     r1,#0xa
000028  fbb0f2f1          UDIV     r2,r0,r1
00002c  fb010812          MLS      r8,r1,r2,r0
;;;438    		if(enshow==0&&t<(len-1))
000030  f1ba0f00          CMP      r10,#0
000034  d11b              BNE      |L12.110|
000036  1e70              SUBS     r0,r6,#1
000038  42a8              CMP      r0,r5
00003a  dd18              BLE      |L12.110|
;;;439    		{
;;;440    			if(temp==0)
00003c  f1b80f00          CMP      r8,#0
000040  d113              BNE      |L12.106|
;;;441    			{
;;;442    				LCD_ShowChar(x+(size/2)*t,y,POINT_COLOR,BACK_COLOR,' ',size,0);
000042  2000              MOVS     r0,#0
000044  2120              MOVS     r1,#0x20
000046  46a3              MOV      r11,r4
000048  e9cd1400          STRD     r1,r4,[sp,#0]
00004c  9002              STR      r0,[sp,#8]
00004e  eb0471db          ADD      r1,r4,r11,LSR #31
000052  1049              ASRS     r1,r1,#1
000054  fb017105          MLA      r1,r1,r5,r7
000058  b288              UXTH     r0,r1
00005a  4913              LDR      r1,|L12.168|
00005c  880b              LDRH     r3,[r1,#0]  ; BACK_COLOR
00005e  4913              LDR      r1,|L12.172|
000060  880a              LDRH     r2,[r1,#0]  ; POINT_COLOR
000062  9904              LDR      r1,[sp,#0x10]
000064  f7fffffe          BL       LCD_ShowChar
;;;443    				continue;
000068  e017              B        |L12.154|
                  |L12.106|
;;;444    			}else enshow=1; 
00006a  f04f0a01          MOV      r10,#1
                  |L12.110|
;;;445    		 	 
;;;446    		}
;;;447    	 	LCD_ShowChar(x+(size/2)*t,y,POINT_COLOR,WHITE,temp+'0',size,0); 
00006e  2100              MOVS     r1,#0
000070  f1080030          ADD      r0,r8,#0x30
000074  b2c0              UXTB     r0,r0
000076  46a3              MOV      r11,r4
000078  e9cd4101          STRD     r4,r1,[sp,#4]
00007c  9000              STR      r0,[sp,#0]
00007e  eb0471db          ADD      r1,r4,r11,LSR #31
000082  1049              ASRS     r1,r1,#1
000084  fb017105          MLA      r1,r1,r5,r7
000088  b288              UXTH     r0,r1
00008a  f64f73ff          MOV      r3,#0xffff
00008e  4907              LDR      r1,|L12.172|
000090  880a              LDRH     r2,[r1,#0]  ; POINT_COLOR
000092  9904              LDR      r1,[sp,#0x10]
000094  f7fffffe          BL       LCD_ShowChar
000098  bf00              NOP                            ;443
                  |L12.154|
00009a  1c68              ADDS     r0,r5,#1              ;435
00009c  b2c5              UXTB     r5,r0                 ;435
                  |L12.158|
00009e  42b5              CMP      r5,r6                 ;435
0000a0  dbb9              BLT      |L12.22|
;;;448    	}
;;;449    } 
0000a2  b007              ADD      sp,sp,#0x1c
0000a4  e8bd8ff0          POP      {r4-r11,pc}
;;;450    
                          ENDP

                  |L12.168|
                          DCD      BACK_COLOR
                  |L12.172|
                          DCD      POINT_COLOR

                          AREA ||i.LCD_ShowString||, CODE, READONLY, ALIGN=2

                  LCD_ShowString PROC
;;;392    ******************************************************************************/   	  
;;;393    void LCD_ShowString(u16 x,u16 y,u8 size,u8 *p,u8 mode)
000000  e92d43fe          PUSH     {r1-r9,lr}
;;;394    {         
000004  4606              MOV      r6,r0
000006  460f              MOV      r7,r1
000008  4615              MOV      r5,r2
00000a  461c              MOV      r4,r3
00000c  f8dd8028          LDR      r8,[sp,#0x28]
;;;395        while((*p<='~')&&(*p>=' '))//判断是不是非法字符!
000010  e01d              B        |L13.78|
                  |L13.18|
;;;396        {   
;;;397    		if(x>(lcddev.width-1)||y>(lcddev.height-1)) 
000012  4813              LDR      r0,|L13.96|
000014  8800              LDRH     r0,[r0,#0]  ; lcddev
000016  1e40              SUBS     r0,r0,#1
000018  42b0              CMP      r0,r6
00001a  db04              BLT      |L13.38|
00001c  4810              LDR      r0,|L13.96|
00001e  8840              LDRH     r0,[r0,#2]  ; lcddev
000020  1e40              SUBS     r0,r0,#1
000022  42b8              CMP      r0,r7
000024  da01              BGE      |L13.42|
                  |L13.38|
;;;398    		return;     
;;;399            LCD_ShowChar(x,y,POINT_COLOR,WHITE,*p,size,mode);
;;;400            x+=size/2;
;;;401            p++;
;;;402        }  
;;;403    } 
000026  e8bd83fe          POP      {r1-r9,pc}
                  |L13.42|
00002a  7820              LDRB     r0,[r4,#0]            ;399
00002c  f64f73ff          MOV      r3,#0xffff            ;399
000030  e88d0121          STM      sp,{r0,r5,r8}         ;399
000034  480b              LDR      r0,|L13.100|
000036  8802              LDRH     r2,[r0,#0]            ;399  ; POINT_COLOR
000038  4639              MOV      r1,r7                 ;399
00003a  4630              MOV      r0,r6                 ;399
00003c  f7fffffe          BL       LCD_ShowChar
000040  4628              MOV      r0,r5                 ;400
000042  eb0571d0          ADD      r1,r5,r0,LSR #31      ;400
000046  eb060161          ADD      r1,r6,r1,ASR #1       ;400
00004a  b28e              UXTH     r6,r1                 ;400
00004c  1c64              ADDS     r4,r4,#1              ;401
                  |L13.78|
00004e  7820              LDRB     r0,[r4,#0]            ;395
000050  287e              CMP      r0,#0x7e              ;395
000052  dc02              BGT      |L13.90|
000054  7820              LDRB     r0,[r4,#0]            ;395
000056  2820              CMP      r0,#0x20              ;395
000058  dadb              BGE      |L13.18|
                  |L13.90|
00005a  bf00              NOP      
00005c  e7e3              B        |L13.38|
;;;404    
                          ENDP

00005e  0000              DCW      0x0000
                  |L13.96|
                          DCD      lcddev
                  |L13.100|
                          DCD      POINT_COLOR

                          AREA ||i._draw_circle_8||, CODE, READONLY, ALIGN=1

                  _draw_circle_8 PROC
;;;135    ******************************************************************************/  
;;;136    void _draw_circle_8(int xc, int yc, int x, int y, u16 c)
000000  e92d41f0          PUSH     {r4-r8,lr}
;;;137    {
000004  4604              MOV      r4,r0
000006  460d              MOV      r5,r1
000008  4616              MOV      r6,r2
00000a  461f              MOV      r7,r3
00000c  f8dd8018          LDR      r8,[sp,#0x18]
;;;138    	GUI_DrawPoint(xc + x, yc + y, c);
000010  19ea              ADDS     r2,r5,r7
000012  b291              UXTH     r1,r2
000014  19a2              ADDS     r2,r4,r6
000016  b290              UXTH     r0,r2
000018  4642              MOV      r2,r8
00001a  f7fffffe          BL       GUI_DrawPoint
;;;139    
;;;140    	GUI_DrawPoint(xc - x, yc + y, c);
00001e  19ea              ADDS     r2,r5,r7
000020  b291              UXTH     r1,r2
000022  1ba2              SUBS     r2,r4,r6
000024  b290              UXTH     r0,r2
000026  4642              MOV      r2,r8
000028  f7fffffe          BL       GUI_DrawPoint
;;;141    
;;;142    	GUI_DrawPoint(xc + x, yc - y, c);
00002c  1bea              SUBS     r2,r5,r7
00002e  b291              UXTH     r1,r2
000030  19a2              ADDS     r2,r4,r6
000032  b290              UXTH     r0,r2
000034  4642              MOV      r2,r8
000036  f7fffffe          BL       GUI_DrawPoint
;;;143    
;;;144    	GUI_DrawPoint(xc - x, yc - y, c);
00003a  1bea              SUBS     r2,r5,r7
00003c  b291              UXTH     r1,r2
00003e  1ba2              SUBS     r2,r4,r6
000040  b290              UXTH     r0,r2
000042  4642              MOV      r2,r8
000044  f7fffffe          BL       GUI_DrawPoint
;;;145    
;;;146    	GUI_DrawPoint(xc + y, yc + x, c);
000048  19aa              ADDS     r2,r5,r6
00004a  b291              UXTH     r1,r2
00004c  19e2              ADDS     r2,r4,r7
00004e  b290              UXTH     r0,r2
000050  4642              MOV      r2,r8
000052  f7fffffe          BL       GUI_DrawPoint
;;;147    
;;;148    	GUI_DrawPoint(xc - y, yc + x, c);
000056  19aa              ADDS     r2,r5,r6
000058  b291              UXTH     r1,r2
00005a  1be2              SUBS     r2,r4,r7
00005c  b290              UXTH     r0,r2
00005e  4642              MOV      r2,r8
000060  f7fffffe          BL       GUI_DrawPoint
;;;149    
;;;150    	GUI_DrawPoint(xc + y, yc - x, c);
000064  1baa              SUBS     r2,r5,r6
000066  b291              UXTH     r1,r2
000068  19e2              ADDS     r2,r4,r7
00006a  b290              UXTH     r0,r2
00006c  4642              MOV      r2,r8
00006e  f7fffffe          BL       GUI_DrawPoint
;;;151    
;;;152    	GUI_DrawPoint(xc - y, yc - x, c);
000072  1baa              SUBS     r2,r5,r6
000074  b291              UXTH     r1,r2
000076  1be2              SUBS     r2,r4,r7
000078  b290              UXTH     r0,r2
00007a  4642              MOV      r2,r8
00007c  f7fffffe          BL       GUI_DrawPoint
;;;153    }
000080  e8bd81f0          POP      {r4-r8,pc}
;;;154    
                          ENDP


                          AREA ||i._swap||, CODE, READONLY, ALIGN=1

                  _swap PROC
;;;221    
;;;222    static void _swap(u16 *a, u16 *b)
000000  8802              LDRH     r2,[r0,#0]
;;;223    {
;;;224    	u16 tmp;
;;;225      tmp = *a;
;;;226    	*a = *b;
000002  880b              LDRH     r3,[r1,#0]
000004  8003              STRH     r3,[r0,#0]
;;;227    	*b = tmp;
000006  800a              STRH     r2,[r1,#0]
;;;228    }
000008  4770              BX       lr
;;;229    
                          ENDP


                          AREA ||i.mypow||, CODE, READONLY, ALIGN=1

                  mypow PROC
;;;412    ******************************************************************************/ 
;;;413    u32 mypow(u8 m,u8 n)
000000  b510              PUSH     {r4,lr}
;;;414    {
000002  4602              MOV      r2,r0
;;;415    	u32 result=1;	 
000004  2001              MOVS     r0,#1
;;;416    	while(n--)result*=m;    
000006  e000              B        |L16.10|
                  |L16.8|
000008  4350              MULS     r0,r2,r0
                  |L16.10|
00000a  1e0b              SUBS     r3,r1,#0
00000c  f1a10401          SUB      r4,r1,#1
000010  b2e1              UXTB     r1,r4
000012  d1f9              BNE      |L16.8|
;;;417    	return result;
;;;418    }
000014  bd10              POP      {r4,pc}
;;;419    
                          ENDP


                          AREA ||.constdata||, DATA, READONLY, ALIGN=0

                  asc2_1206
000000  00000000          DCB      0x00,0x00,0x00,0x00
000004  00000000          DCB      0x00,0x00,0x00,0x00
000008  00000000          DCB      0x00,0x00,0x00,0x00
00000c  00000404          DCB      0x00,0x00,0x04,0x04
000010  04040404          DCB      0x04,0x04,0x04,0x04
000014  00040000          DCB      0x00,0x04,0x00,0x00
000018  00140a0a          DCB      0x00,0x14,0x0a,0x0a
00001c  00000000          DCB      0x00,0x00,0x00,0x00
000020  00000000          DCB      0x00,0x00,0x00,0x00
000024  00001414          DCB      0x00,0x00,0x14,0x14
000028  3f140a3f          DCB      0x3f,0x14,0x0a,0x3f
00002c  0a0a0000          DCB      0x0a,0x0a,0x00,0x00
000030  00041e15          DCB      0x00,0x04,0x1e,0x15
000034  05060c14          DCB      0x05,0x06,0x0c,0x14
000038  150f0400          DCB      0x15,0x0f,0x04,0x00
00003c  00001215          DCB      0x00,0x00,0x12,0x15
000040  0d0a142c          DCB      0x0d,0x0a,0x14,0x2c
000044  2a120000          DCB      0x2a,0x12,0x00,0x00
000048  0000040a          DCB      0x00,0x00,0x04,0x0a
00004c  0a1e1515          DCB      0x0a,0x1e,0x15,0x15
000050  09360000          DCB      0x09,0x36,0x00,0x00
000054  00020201          DCB      0x00,0x02,0x02,0x01
000058  00000000          DCB      0x00,0x00,0x00,0x00
00005c  00000000          DCB      0x00,0x00,0x00,0x00
000060  00201008          DCB      0x00,0x20,0x10,0x08
000064  08080808          DCB      0x08,0x08,0x08,0x08
000068  08102000          DCB      0x08,0x10,0x20,0x00
00006c  00020408          DCB      0x00,0x02,0x04,0x08
000070  08080808          DCB      0x08,0x08,0x08,0x08
000074  08040200          DCB      0x08,0x04,0x02,0x00
000078  00000004          DCB      0x00,0x00,0x00,0x04
00007c  150e0e15          DCB      0x15,0x0e,0x0e,0x15
000080  04000000          DCB      0x04,0x00,0x00,0x00
000084  00000404          DCB      0x00,0x00,0x04,0x04
000088  041f0404          DCB      0x04,0x1f,0x04,0x04
00008c  04000000          DCB      0x04,0x00,0x00,0x00
000090  00000000          DCB      0x00,0x00,0x00,0x00
000094  00000000          DCB      0x00,0x00,0x00,0x00
000098  00020201          DCB      0x00,0x02,0x02,0x01
00009c  00000000          DCB      0x00,0x00,0x00,0x00
0000a0  001f0000          DCB      0x00,0x1f,0x00,0x00
0000a4  00000000          DCB      0x00,0x00,0x00,0x00
0000a8  00000000          DCB      0x00,0x00,0x00,0x00
0000ac  00000000          DCB      0x00,0x00,0x00,0x00
0000b0  00020000          DCB      0x00,0x02,0x00,0x00
0000b4  00100808          DCB      0x00,0x10,0x08,0x08
0000b8  08040402          DCB      0x08,0x04,0x04,0x02
0000bc  02020100          DCB      0x02,0x02,0x01,0x00
0000c0  00000e11          DCB      0x00,0x00,0x0e,0x11
0000c4  11111111          DCB      0x11,0x11,0x11,0x11
0000c8  110e0000          DCB      0x11,0x0e,0x00,0x00
0000cc  00000406          DCB      0x00,0x00,0x04,0x06
0000d0  04040404          DCB      0x04,0x04,0x04,0x04
0000d4  040e0000          DCB      0x04,0x0e,0x00,0x00
0000d8  00000e11          DCB      0x00,0x00,0x0e,0x11
0000dc  11080402          DCB      0x11,0x08,0x04,0x02
0000e0  011f0000          DCB      0x01,0x1f,0x00,0x00
0000e4  00000e11          DCB      0x00,0x00,0x0e,0x11
0000e8  100c1010          DCB      0x10,0x0c,0x10,0x10
0000ec  110e0000          DCB      0x11,0x0e,0x00,0x00
0000f0  0000080c          DCB      0x00,0x00,0x08,0x0c
0000f4  0a0a091e          DCB      0x0a,0x0a,0x09,0x1e
0000f8  08180000          DCB      0x08,0x18,0x00,0x00
0000fc  00001f01          DCB      0x00,0x00,0x1f,0x01
000100  010f1010          DCB      0x01,0x0f,0x10,0x10
000104  110e0000          DCB      0x11,0x0e,0x00,0x00
000108  00000e09          DCB      0x00,0x00,0x0e,0x09
00010c  010f1111          DCB      0x01,0x0f,0x11,0x11
000110  110e0000          DCB      0x11,0x0e,0x00,0x00
000114  00001f09          DCB      0x00,0x00,0x1f,0x09
000118  08040404          DCB      0x08,0x04,0x04,0x04
00011c  04040000          DCB      0x04,0x04,0x00,0x00
000120  00000e11          DCB      0x00,0x00,0x0e,0x11
000124  110e1111          DCB      0x11,0x0e,0x11,0x11
000128  110e0000          DCB      0x11,0x0e,0x00,0x00
00012c  00000e11          DCB      0x00,0x00,0x0e,0x11
000130  11111e10          DCB      0x11,0x11,0x1e,0x10
000134  120e0000          DCB      0x12,0x0e,0x00,0x00
000138  00000000          DCB      0x00,0x00,0x00,0x00
00013c  04000000          DCB      0x04,0x00,0x00,0x00
000140  00040000          DCB      0x00,0x04,0x00,0x00
000144  00000000          DCB      0x00,0x00,0x00,0x00
000148  00040000          DCB      0x00,0x04,0x00,0x00
00014c  00040400          DCB      0x00,0x04,0x04,0x00
000150  00201008          DCB      0x00,0x20,0x10,0x08
000154  04020408          DCB      0x04,0x02,0x04,0x08
000158  10200000          DCB      0x10,0x20,0x00,0x00
00015c  00000000          DCB      0x00,0x00,0x00,0x00
000160  1f00001f          DCB      0x1f,0x00,0x00,0x1f
000164  00000000          DCB      0x00,0x00,0x00,0x00
000168  00020408          DCB      0x00,0x02,0x04,0x08
00016c  10201008          DCB      0x10,0x20,0x10,0x08
000170  04020000          DCB      0x04,0x02,0x00,0x00
000174  00000e11          DCB      0x00,0x00,0x0e,0x11
000178  11080404          DCB      0x11,0x08,0x04,0x04
00017c  00040000          DCB      0x00,0x04,0x00,0x00
000180  00000e11          DCB      0x00,0x00,0x0e,0x11
000184  1915151d          DCB      0x19,0x15,0x15,0x1d
000188  011e0000          DCB      0x01,0x1e,0x00,0x00
00018c  00000404          DCB      0x00,0x00,0x04,0x04
000190  0c0a0a1e          DCB      0x0c,0x0a,0x0a,0x1e
000194  12330000          DCB      0x12,0x33,0x00,0x00
000198  00000f12          DCB      0x00,0x00,0x0f,0x12
00019c  120e1212          DCB      0x12,0x0e,0x12,0x12
0001a0  120f0000          DCB      0x12,0x0f,0x00,0x00
0001a4  00001e11          DCB      0x00,0x00,0x1e,0x11
0001a8  01010101          DCB      0x01,0x01,0x01,0x01
0001ac  110e0000          DCB      0x11,0x0e,0x00,0x00
0001b0  00000f12          DCB      0x00,0x00,0x0f,0x12
0001b4  12121212          DCB      0x12,0x12,0x12,0x12
0001b8  120f0000          DCB      0x12,0x0f,0x00,0x00
0001bc  00001f12          DCB      0x00,0x00,0x1f,0x12
0001c0  0a0e0a02          DCB      0x0a,0x0e,0x0a,0x02
0001c4  121f0000          DCB      0x12,0x1f,0x00,0x00
0001c8  00001f12          DCB      0x00,0x00,0x1f,0x12
0001cc  0a0e0a02          DCB      0x0a,0x0e,0x0a,0x02
0001d0  02070000          DCB      0x02,0x07,0x00,0x00
0001d4  00001c12          DCB      0x00,0x00,0x1c,0x12
0001d8  01013911          DCB      0x01,0x01,0x39,0x11
0001dc  120c0000          DCB      0x12,0x0c,0x00,0x00
0001e0  00003312          DCB      0x00,0x00,0x33,0x12
0001e4  121e1212          DCB      0x12,0x1e,0x12,0x12
0001e8  12330000          DCB      0x12,0x33,0x00,0x00
0001ec  00001f04          DCB      0x00,0x00,0x1f,0x04
0001f0  04040404          DCB      0x04,0x04,0x04,0x04
0001f4  041f0000          DCB      0x04,0x1f,0x00,0x00
0001f8  00003e08          DCB      0x00,0x00,0x3e,0x08
0001fc  08080808          DCB      0x08,0x08,0x08,0x08
000200  08090700          DCB      0x08,0x09,0x07,0x00
000204  00003712          DCB      0x00,0x00,0x37,0x12
000208  0a060a0a          DCB      0x0a,0x06,0x0a,0x0a
00020c  12370000          DCB      0x12,0x37,0x00,0x00
000210  00000702          DCB      0x00,0x00,0x07,0x02
000214  02020202          DCB      0x02,0x02,0x02,0x02
000218  223f0000          DCB      0x22,0x3f,0x00,0x00
00021c  00001b1b          DCB      0x00,0x00,0x1b,0x1b
000220  1b1b1515          DCB      0x1b,0x1b,0x15,0x15
000224  15150000          DCB      0x15,0x15,0x00,0x00
000228  00003b12          DCB      0x00,0x00,0x3b,0x12
00022c  16161a1a          DCB      0x16,0x16,0x1a,0x1a
000230  12170000          DCB      0x12,0x17,0x00,0x00
000234  00000e11          DCB      0x00,0x00,0x0e,0x11
000238  11111111          DCB      0x11,0x11,0x11,0x11
00023c  110e0000          DCB      0x11,0x0e,0x00,0x00
000240  00000f12          DCB      0x00,0x00,0x0f,0x12
000244  120e0202          DCB      0x12,0x0e,0x02,0x02
000248  02070000          DCB      0x02,0x07,0x00,0x00
00024c  00000e11          DCB      0x00,0x00,0x0e,0x11
000250  11111117          DCB      0x11,0x11,0x11,0x17
000254  190e1800          DCB      0x19,0x0e,0x18,0x00
000258  00000f12          DCB      0x00,0x00,0x0f,0x12
00025c  120e0a12          DCB      0x12,0x0e,0x0a,0x12
000260  12370000          DCB      0x12,0x37,0x00,0x00
000264  00001e11          DCB      0x00,0x00,0x1e,0x11
000268  01060810          DCB      0x01,0x06,0x08,0x10
00026c  110f0000          DCB      0x11,0x0f,0x00,0x00
000270  00001f15          DCB      0x00,0x00,0x1f,0x15
000274  04040404          DCB      0x04,0x04,0x04,0x04
000278  040e0000          DCB      0x04,0x0e,0x00,0x00
00027c  00003312          DCB      0x00,0x00,0x33,0x12
000280  12121212          DCB      0x12,0x12,0x12,0x12
000284  120c0000          DCB      0x12,0x0c,0x00,0x00
000288  00003312          DCB      0x00,0x00,0x33,0x12
00028c  120a0a0c          DCB      0x12,0x0a,0x0a,0x0c
000290  04040000          DCB      0x04,0x04,0x00,0x00
000294  00001515          DCB      0x00,0x00,0x15,0x15
000298  150e0a0a          DCB      0x15,0x0e,0x0a,0x0a
00029c  0a0a0000          DCB      0x0a,0x0a,0x00,0x00
0002a0  00001b0a          DCB      0x00,0x00,0x1b,0x0a
0002a4  0a04040a          DCB      0x0a,0x04,0x04,0x0a
0002a8  0a1b0000          DCB      0x0a,0x1b,0x00,0x00
0002ac  00001b0a          DCB      0x00,0x00,0x1b,0x0a
0002b0  0a040404          DCB      0x0a,0x04,0x04,0x04
0002b4  040e0000          DCB      0x04,0x0e,0x00,0x00
0002b8  00001f09          DCB      0x00,0x00,0x1f,0x09
0002bc  08040402          DCB      0x08,0x04,0x04,0x02
0002c0  121f0000          DCB      0x12,0x1f,0x00,0x00
0002c4  001c0404          DCB      0x00,0x1c,0x04,0x04
0002c8  04040404          DCB      0x04,0x04,0x04,0x04
0002cc  04041c00          DCB      0x04,0x04,0x1c,0x00
0002d0  00020202          DCB      0x00,0x02,0x02,0x02
0002d4  04040808          DCB      0x04,0x04,0x08,0x08
0002d8  08100000          DCB      0x08,0x10,0x00,0x00
0002dc  000e0808          DCB      0x00,0x0e,0x08,0x08
0002e0  08080808          DCB      0x08,0x08,0x08,0x08
0002e4  08080e00          DCB      0x08,0x08,0x0e,0x00
0002e8  00040a00          DCB      0x00,0x04,0x0a,0x00
0002ec  00000000          DCB      0x00,0x00,0x00,0x00
0002f0  00000000          DCB      0x00,0x00,0x00,0x00
0002f4  00000000          DCB      0x00,0x00,0x00,0x00
0002f8  00000000          DCB      0x00,0x00,0x00,0x00
0002fc  0000003f          DCB      0x00,0x00,0x00,0x3f
000300  00040000          DCB      0x00,0x04,0x00,0x00
000304  00000000          DCB      0x00,0x00,0x00,0x00
000308  00000000          DCB      0x00,0x00,0x00,0x00
00030c  00000000          DCB      0x00,0x00,0x00,0x00
000310  000c121c          DCB      0x00,0x0c,0x12,0x1c
000314  123c0000          DCB      0x12,0x3c,0x00,0x00
000318  00000302          DCB      0x00,0x00,0x03,0x02
00031c  020e1212          DCB      0x02,0x0e,0x12,0x12
000320  120e0000          DCB      0x12,0x0e,0x00,0x00
000324  00000000          DCB      0x00,0x00,0x00,0x00
000328  001c1202          DCB      0x00,0x1c,0x12,0x02
00032c  021c0000          DCB      0x02,0x1c,0x00,0x00
000330  00001810          DCB      0x00,0x00,0x18,0x10
000334  101c1212          DCB      0x10,0x1c,0x12,0x12
000338  123c0000          DCB      0x12,0x3c,0x00,0x00
00033c  00000000          DCB      0x00,0x00,0x00,0x00
000340  000c121e          DCB      0x00,0x0c,0x12,0x1e
000344  021c0000          DCB      0x02,0x1c,0x00,0x00
000348  00003804          DCB      0x00,0x00,0x38,0x04
00034c  041e0404          DCB      0x04,0x1e,0x04,0x04
000350  041e0000          DCB      0x04,0x1e,0x00,0x00
000354  00000000          DCB      0x00,0x00,0x00,0x00
000358  003c120c          DCB      0x00,0x3c,0x12,0x0c
00035c  021e221c          DCB      0x02,0x1e,0x22,0x1c
000360  00000302          DCB      0x00,0x00,0x03,0x02
000364  020e1212          DCB      0x02,0x0e,0x12,0x12
000368  12370000          DCB      0x12,0x37,0x00,0x00
00036c  00000400          DCB      0x00,0x00,0x04,0x00
000370  00060404          DCB      0x00,0x06,0x04,0x04
000374  040e0000          DCB      0x04,0x0e,0x00,0x00
000378  00000800          DCB      0x00,0x00,0x08,0x00
00037c  000c0808          DCB      0x00,0x0c,0x08,0x08
000380  08080807          DCB      0x08,0x08,0x08,0x07
000384  00000302          DCB      0x00,0x00,0x03,0x02
000388  023a0a0e          DCB      0x02,0x3a,0x0a,0x0e
00038c  12370000          DCB      0x12,0x37,0x00,0x00
000390  00000704          DCB      0x00,0x00,0x07,0x04
000394  04040404          DCB      0x04,0x04,0x04,0x04
000398  041f0000          DCB      0x04,0x1f,0x00,0x00
00039c  00000000          DCB      0x00,0x00,0x00,0x00
0003a0  000f1515          DCB      0x00,0x0f,0x15,0x15
0003a4  15150000          DCB      0x15,0x15,0x00,0x00
0003a8  00000000          DCB      0x00,0x00,0x00,0x00
0003ac  000f1212          DCB      0x00,0x0f,0x12,0x12
0003b0  12370000          DCB      0x12,0x37,0x00,0x00
0003b4  00000000          DCB      0x00,0x00,0x00,0x00
0003b8  000c1212          DCB      0x00,0x0c,0x12,0x12
0003bc  120c0000          DCB      0x12,0x0c,0x00,0x00
0003c0  00000000          DCB      0x00,0x00,0x00,0x00
0003c4  000f1212          DCB      0x00,0x0f,0x12,0x12
0003c8  120e0207          DCB      0x12,0x0e,0x02,0x07
0003cc  00000000          DCB      0x00,0x00,0x00,0x00
0003d0  001c1212          DCB      0x00,0x1c,0x12,0x12
0003d4  121c1038          DCB      0x12,0x1c,0x10,0x38
0003d8  00000000          DCB      0x00,0x00,0x00,0x00
0003dc  001b0602          DCB      0x00,0x1b,0x06,0x02
0003e0  02070000          DCB      0x02,0x07,0x00,0x00
0003e4  00000000          DCB      0x00,0x00,0x00,0x00
0003e8  001e020c          DCB      0x00,0x1e,0x02,0x0c
0003ec  101e0000          DCB      0x10,0x1e,0x00,0x00
0003f0  00000004          DCB      0x00,0x00,0x00,0x04
0003f4  040e0404          DCB      0x04,0x0e,0x04,0x04
0003f8  04180000          DCB      0x04,0x18,0x00,0x00
0003fc  00000000          DCB      0x00,0x00,0x00,0x00
000400  001b1212          DCB      0x00,0x1b,0x12,0x12
000404  123c0000          DCB      0x12,0x3c,0x00,0x00
000408  00000000          DCB      0x00,0x00,0x00,0x00
00040c  0037120a          DCB      0x00,0x37,0x12,0x0a
000410  0c040000          DCB      0x0c,0x04,0x00,0x00
000414  00000000          DCB      0x00,0x00,0x00,0x00
000418  0015150e          DCB      0x00,0x15,0x15,0x0e
00041c  0a0a0000          DCB      0x0a,0x0a,0x00,0x00
000420  00000000          DCB      0x00,0x00,0x00,0x00
000424  001b0a04          DCB      0x00,0x1b,0x0a,0x04
000428  0a1b0000          DCB      0x0a,0x1b,0x00,0x00
00042c  00000000          DCB      0x00,0x00,0x00,0x00
000430  0037120a          DCB      0x00,0x37,0x12,0x0a
000434  0c040403          DCB      0x0c,0x04,0x04,0x03
000438  00000000          DCB      0x00,0x00,0x00,0x00
00043c  001e0804          DCB      0x00,0x1e,0x08,0x04
000440  041e0000          DCB      0x04,0x1e,0x00,0x00
000444  00180808          DCB      0x00,0x18,0x08,0x08
000448  08040808          DCB      0x08,0x04,0x08,0x08
00044c  08081800          DCB      0x08,0x08,0x18,0x00
000450  08080808          DCB      0x08,0x08,0x08,0x08
000454  08080808          DCB      0x08,0x08,0x08,0x08
000458  08080808          DCB      0x08,0x08,0x08,0x08
00045c  00060404          DCB      0x00,0x06,0x04,0x04
000460  04080404          DCB      0x04,0x08,0x04,0x04
000464  04040600          DCB      0x04,0x04,0x06,0x00
000468  02251800          DCB      0x02,0x25,0x18,0x00
00046c  00000000          DCB      0x00,0x00,0x00,0x00
000470  00000000          DCB      0x00,0x00,0x00,0x00
                  asc2_1608
000474  00000000          DCB      0x00,0x00,0x00,0x00
000478  00000000          DCB      0x00,0x00,0x00,0x00
00047c  00000000          DCB      0x00,0x00,0x00,0x00
000480  00000000          DCB      0x00,0x00,0x00,0x00
000484  00000008          DCB      0x00,0x00,0x00,0x08
000488  08080808          DCB      0x08,0x08,0x08,0x08
00048c  08080000          DCB      0x08,0x08,0x00,0x00
000490  18180000          DCB      0x18,0x18,0x00,0x00
000494  00486c24          DCB      0x00,0x48,0x6c,0x24
000498  12000000          DCB      0x12,0x00,0x00,0x00
00049c  00000000          DCB      0x00,0x00,0x00,0x00
0004a0  00000000          DCB      0x00,0x00,0x00,0x00
0004a4  00000024          DCB      0x00,0x00,0x00,0x24
0004a8  24247f12          DCB      0x24,0x24,0x7f,0x12
0004ac  12127f12          DCB      0x12,0x12,0x7f,0x12
0004b0  12120000          DCB      0x12,0x12,0x00,0x00
0004b4  0000081c          DCB      0x00,0x00,0x08,0x1c
0004b8  2a2a0a0c          DCB      0x2a,0x2a,0x0a,0x0c
0004bc  1828282a          DCB      0x18,0x28,0x28,0x2a
0004c0  2a1c0808          DCB      0x2a,0x1c,0x08,0x08
0004c4  00000022          DCB      0x00,0x00,0x00,0x22
0004c8  25151515          DCB      0x25,0x15,0x15,0x15
0004cc  2a585454          DCB      0x2a,0x58,0x54,0x54
0004d0  54220000          DCB      0x54,0x22,0x00,0x00
0004d4  0000000c          DCB      0x00,0x00,0x00,0x0c
0004d8  1212120a          DCB      0x12,0x12,0x12,0x0a
0004dc  76252911          DCB      0x76,0x25,0x29,0x11
0004e0  916e0000          DCB      0x91,0x6e,0x00,0x00
0004e4  00060604          DCB      0x00,0x06,0x06,0x04
0004e8  03000000          DCB      0x03,0x00,0x00,0x00
0004ec  00000000          DCB      0x00,0x00,0x00,0x00
0004f0  00000000          DCB      0x00,0x00,0x00,0x00
0004f4  00402010          DCB      0x00,0x40,0x20,0x10
0004f8  10080808          DCB      0x10,0x08,0x08,0x08
0004fc  08080810          DCB      0x08,0x08,0x08,0x10
000500  10204000          DCB      0x10,0x20,0x40,0x00
000504  00020408          DCB      0x00,0x02,0x04,0x08
000508  08101010          DCB      0x08,0x10,0x10,0x10
00050c  10101008          DCB      0x10,0x10,0x10,0x08
000510  08040200          DCB      0x08,0x04,0x02,0x00
000514  00000000          DCB      0x00,0x00,0x00,0x00
000518  08086b1c          DCB      0x08,0x08,0x6b,0x1c
00051c  1c6b0808          DCB      0x1c,0x6b,0x08,0x08
000520  00000000          DCB      0x00,0x00,0x00,0x00
000524  00000000          DCB      0x00,0x00,0x00,0x00
000528  08080808          DCB      0x08,0x08,0x08,0x08
00052c  7f080808          DCB      0x7f,0x08,0x08,0x08
000530  08000000          DCB      0x08,0x00,0x00,0x00
000534  00000000          DCB      0x00,0x00,0x00,0x00
000538  00000000          DCB      0x00,0x00,0x00,0x00
00053c  00000000          DCB      0x00,0x00,0x00,0x00
000540  06060403          DCB      0x06,0x06,0x04,0x03
000544  00000000          DCB      0x00,0x00,0x00,0x00
000548  00000000          DCB      0x00,0x00,0x00,0x00
00054c  fe000000          DCB      0xfe,0x00,0x00,0x00
000550  00000000          DCB      0x00,0x00,0x00,0x00
000554  00000000          DCB      0x00,0x00,0x00,0x00
000558  00000000          DCB      0x00,0x00,0x00,0x00
00055c  00000000          DCB      0x00,0x00,0x00,0x00
000560  06060000          DCB      0x06,0x06,0x00,0x00
000564  00008040          DCB      0x00,0x00,0x80,0x40
000568  40202010          DCB      0x40,0x20,0x20,0x10
00056c  10080804          DCB      0x10,0x08,0x08,0x04
000570  04020200          DCB      0x04,0x02,0x02,0x00
000574  00000018          DCB      0x00,0x00,0x00,0x18
000578  24424242          DCB      0x24,0x42,0x42,0x42
00057c  42424242          DCB      0x42,0x42,0x42,0x42
000580  24180000          DCB      0x24,0x18,0x00,0x00
000584  00000008          DCB      0x00,0x00,0x00,0x08
000588  0e080808          DCB      0x0e,0x08,0x08,0x08
00058c  08080808          DCB      0x08,0x08,0x08,0x08
000590  083e0000          DCB      0x08,0x3e,0x00,0x00
000594  0000003c          DCB      0x00,0x00,0x00,0x3c
000598  42424220          DCB      0x42,0x42,0x42,0x20
00059c  20100804          DCB      0x20,0x10,0x08,0x04
0005a0  427e0000          DCB      0x42,0x7e,0x00,0x00
0005a4  0000003c          DCB      0x00,0x00,0x00,0x3c
0005a8  42422018          DCB      0x42,0x42,0x20,0x18
0005ac  20404042          DCB      0x20,0x40,0x40,0x42
0005b0  221c0000          DCB      0x22,0x1c,0x00,0x00
0005b4  00000020          DCB      0x00,0x00,0x00,0x20
0005b8  30282424          DCB      0x30,0x28,0x24,0x24
0005bc  22227e20          DCB      0x22,0x22,0x7e,0x20
0005c0  20780000          DCB      0x20,0x78,0x00,0x00
0005c4  0000007e          DCB      0x00,0x00,0x00,0x7e
0005c8  0202021a          DCB      0x02,0x02,0x02,0x1a
0005cc  26404042          DCB      0x26,0x40,0x40,0x42
0005d0  221c0000          DCB      0x22,0x1c,0x00,0x00
0005d4  00000038          DCB      0x00,0x00,0x00,0x38
0005d8  2402021a          DCB      0x24,0x02,0x02,0x1a
0005dc  26424242          DCB      0x26,0x42,0x42,0x42
0005e0  24180000          DCB      0x24,0x18,0x00,0x00
0005e4  0000007e          DCB      0x00,0x00,0x00,0x7e
0005e8  22221010          DCB      0x22,0x22,0x10,0x10
0005ec  08080808          DCB      0x08,0x08,0x08,0x08
0005f0  08080000          DCB      0x08,0x08,0x00,0x00
0005f4  0000003c          DCB      0x00,0x00,0x00,0x3c
0005f8  42424224          DCB      0x42,0x42,0x42,0x24
0005fc  18244242          DCB      0x18,0x24,0x42,0x42
000600  423c0000          DCB      0x42,0x3c,0x00,0x00
000604  00000018          DCB      0x00,0x00,0x00,0x18
000608  24424242          DCB      0x24,0x42,0x42,0x42
00060c  64584040          DCB      0x64,0x58,0x40,0x40
000610  241c0000          DCB      0x24,0x1c,0x00,0x00
000614  00000000          DCB      0x00,0x00,0x00,0x00
000618  00001818          DCB      0x00,0x00,0x18,0x18
00061c  00000000          DCB      0x00,0x00,0x00,0x00
000620  18180000          DCB      0x18,0x18,0x00,0x00
000624  00000000          DCB      0x00,0x00,0x00,0x00
000628  00000008          DCB      0x00,0x00,0x00,0x08
00062c  00000000          DCB      0x00,0x00,0x00,0x00
000630  00080804          DCB      0x00,0x08,0x08,0x04
000634  00000040          DCB      0x00,0x00,0x00,0x40
000638  20100804          DCB      0x20,0x10,0x08,0x04
00063c  02040810          DCB      0x02,0x04,0x08,0x10
000640  20400000          DCB      0x20,0x40,0x00,0x00
000644  00000000          DCB      0x00,0x00,0x00,0x00
000648  00007f00          DCB      0x00,0x00,0x7f,0x00
00064c  00007f00          DCB      0x00,0x00,0x7f,0x00
000650  00000000          DCB      0x00,0x00,0x00,0x00
000654  00000002          DCB      0x00,0x00,0x00,0x02
000658  04081020          DCB      0x04,0x08,0x10,0x20
00065c  40201008          DCB      0x40,0x20,0x10,0x08
000660  04020000          DCB      0x04,0x02,0x00,0x00
000664  0000003c          DCB      0x00,0x00,0x00,0x3c
000668  42424640          DCB      0x42,0x42,0x46,0x40
00066c  20101000          DCB      0x20,0x10,0x10,0x00
000670  18180000          DCB      0x18,0x18,0x00,0x00
000674  0000001c          DCB      0x00,0x00,0x00,0x1c
000678  225a5555          DCB      0x22,0x5a,0x55,0x55
00067c  55552d42          DCB      0x55,0x55,0x2d,0x42
000680  221c0000          DCB      0x22,0x1c,0x00,0x00
000684  00000008          DCB      0x00,0x00,0x00,0x08
000688  08181414          DCB      0x08,0x18,0x14,0x14
00068c  243c2242          DCB      0x24,0x3c,0x22,0x42
000690  42e70000          DCB      0x42,0xe7,0x00,0x00
000694  0000001f          DCB      0x00,0x00,0x00,0x1f
000698  2222221e          DCB      0x22,0x22,0x22,0x1e
00069c  22424242          DCB      0x22,0x42,0x42,0x42
0006a0  221f0000          DCB      0x22,0x1f,0x00,0x00
0006a4  0000007c          DCB      0x00,0x00,0x00,0x7c
0006a8  42420101          DCB      0x42,0x42,0x01,0x01
0006ac  01010142          DCB      0x01,0x01,0x01,0x42
0006b0  221c0000          DCB      0x22,0x1c,0x00,0x00
0006b4  0000001f          DCB      0x00,0x00,0x00,0x1f
0006b8  22424242          DCB      0x22,0x42,0x42,0x42
0006bc  42424242          DCB      0x42,0x42,0x42,0x42
0006c0  221f0000          DCB      0x22,0x1f,0x00,0x00
0006c4  0000003f          DCB      0x00,0x00,0x00,0x3f
0006c8  4212121e          DCB      0x42,0x12,0x12,0x1e
0006cc  12120242          DCB      0x12,0x12,0x02,0x42
0006d0  423f0000          DCB      0x42,0x3f,0x00,0x00
0006d4  0000003f          DCB      0x00,0x00,0x00,0x3f
0006d8  4212121e          DCB      0x42,0x12,0x12,0x1e
0006dc  12120202          DCB      0x12,0x12,0x02,0x02
0006e0  02070000          DCB      0x02,0x07,0x00,0x00
0006e4  0000003c          DCB      0x00,0x00,0x00,0x3c
0006e8  22220101          DCB      0x22,0x22,0x01,0x01
0006ec  01712122          DCB      0x01,0x71,0x21,0x22
0006f0  221c0000          DCB      0x22,0x1c,0x00,0x00
0006f4  000000e7          DCB      0x00,0x00,0x00,0xe7
0006f8  42424242          DCB      0x42,0x42,0x42,0x42
0006fc  7e424242          DCB      0x7e,0x42,0x42,0x42
000700  42e70000          DCB      0x42,0xe7,0x00,0x00
000704  0000003e          DCB      0x00,0x00,0x00,0x3e
000708  08080808          DCB      0x08,0x08,0x08,0x08
00070c  08080808          DCB      0x08,0x08,0x08,0x08
000710  083e0000          DCB      0x08,0x3e,0x00,0x00
000714  0000007c          DCB      0x00,0x00,0x00,0x7c
000718  10101010          DCB      0x10,0x10,0x10,0x10
00071c  10101010          DCB      0x10,0x10,0x10,0x10
000720  1010110f          DCB      0x10,0x10,0x11,0x0f
000724  00000077          DCB      0x00,0x00,0x00,0x77
000728  22120a0e          DCB      0x22,0x12,0x0a,0x0e
00072c  0a121222          DCB      0x0a,0x12,0x12,0x22
000730  22770000          DCB      0x22,0x77,0x00,0x00
000734  00000007          DCB      0x00,0x00,0x00,0x07
000738  02020202          DCB      0x02,0x02,0x02,0x02
00073c  02020202          DCB      0x02,0x02,0x02,0x02
000740  427f0000          DCB      0x42,0x7f,0x00,0x00
000744  00000077          DCB      0x00,0x00,0x00,0x77
000748  36363636          DCB      0x36,0x36,0x36,0x36
00074c  2a2a2a2a          DCB      0x2a,0x2a,0x2a,0x2a
000750  2a6b0000          DCB      0x2a,0x6b,0x00,0x00
000754  000000e3          DCB      0x00,0x00,0x00,0xe3
000758  46464a4a          DCB      0x46,0x46,0x4a,0x4a
00075c  52525262          DCB      0x52,0x52,0x52,0x62
000760  62470000          DCB      0x62,0x47,0x00,0x00
000764  0000001c          DCB      0x00,0x00,0x00,0x1c
000768  22414141          DCB      0x22,0x41,0x41,0x41
00076c  41414141          DCB      0x41,0x41,0x41,0x41
000770  221c0000          DCB      0x22,0x1c,0x00,0x00
000774  0000003f          DCB      0x00,0x00,0x00,0x3f
000778  42424242          DCB      0x42,0x42,0x42,0x42
00077c  3e020202          DCB      0x3e,0x02,0x02,0x02
000780  02070000          DCB      0x02,0x07,0x00,0x00
000784  0000001c          DCB      0x00,0x00,0x00,0x1c
000788  22414141          DCB      0x22,0x41,0x41,0x41
00078c  41414d53          DCB      0x41,0x41,0x4d,0x53
000790  321c6000          DCB      0x32,0x1c,0x60,0x00
000794  0000003f          DCB      0x00,0x00,0x00,0x3f
000798  4242423e          DCB      0x42,0x42,0x42,0x3e
00079c  12122222          DCB      0x12,0x12,0x22,0x22
0007a0  42c70000          DCB      0x42,0xc7,0x00,0x00
0007a4  0000007c          DCB      0x00,0x00,0x00,0x7c
0007a8  42420204          DCB      0x42,0x42,0x02,0x04
0007ac  18204042          DCB      0x18,0x20,0x40,0x42
0007b0  423e0000          DCB      0x42,0x3e,0x00,0x00
0007b4  0000007f          DCB      0x00,0x00,0x00,0x7f
0007b8  49080808          DCB      0x49,0x08,0x08,0x08
0007bc  08080808          DCB      0x08,0x08,0x08,0x08
0007c0  081c0000          DCB      0x08,0x1c,0x00,0x00
0007c4  000000e7          DCB      0x00,0x00,0x00,0xe7
0007c8  42424242          DCB      0x42,0x42,0x42,0x42
0007cc  42424242          DCB      0x42,0x42,0x42,0x42
0007d0  423c0000          DCB      0x42,0x3c,0x00,0x00
0007d4  000000e7          DCB      0x00,0x00,0x00,0xe7
0007d8  42422224          DCB      0x42,0x42,0x22,0x24
0007dc  24141418          DCB      0x24,0x14,0x14,0x18
0007e0  08080000          DCB      0x08,0x08,0x00,0x00
0007e4  0000006b          DCB      0x00,0x00,0x00,0x6b
0007e8  49494949          DCB      0x49,0x49,0x49,0x49
0007ec  55553622          DCB      0x55,0x55,0x36,0x22
0007f0  22220000          DCB      0x22,0x22,0x00,0x00
0007f4  000000e7          DCB      0x00,0x00,0x00,0xe7
0007f8  42242418          DCB      0x42,0x24,0x24,0x18
0007fc  18182424          DCB      0x18,0x18,0x24,0x24
000800  42e70000          DCB      0x42,0xe7,0x00,0x00
000804  00000077          DCB      0x00,0x00,0x00,0x77
000808  22221414          DCB      0x22,0x22,0x14,0x14
00080c  08080808          DCB      0x08,0x08,0x08,0x08
000810  081c0000          DCB      0x08,0x1c,0x00,0x00
000814  0000007e          DCB      0x00,0x00,0x00,0x7e
000818  21201010          DCB      0x21,0x20,0x10,0x10
00081c  08040442          DCB      0x08,0x04,0x04,0x42
000820  423f0000          DCB      0x42,0x3f,0x00,0x00
000824  00780808          DCB      0x00,0x78,0x08,0x08
000828  08080808          DCB      0x08,0x08,0x08,0x08
00082c  08080808          DCB      0x08,0x08,0x08,0x08
000830  08087800          DCB      0x08,0x08,0x78,0x00
000834  00000202          DCB      0x00,0x00,0x02,0x02
000838  04040808          DCB      0x04,0x04,0x08,0x08
00083c  08101020          DCB      0x08,0x10,0x10,0x20
000840  20204040          DCB      0x20,0x20,0x40,0x40
000844  001e1010          DCB      0x00,0x1e,0x10,0x10
000848  10101010          DCB      0x10,0x10,0x10,0x10
00084c  10101010          DCB      0x10,0x10,0x10,0x10
000850  10101e00          DCB      0x10,0x10,0x1e,0x00
000854  00384400          DCB      0x00,0x38,0x44,0x00
000858  00000000          DCB      0x00,0x00,0x00,0x00
00085c  00000000          DCB      0x00,0x00,0x00,0x00
000860  00000000          DCB      0x00,0x00,0x00,0x00
000864  00000000          DCB      0x00,0x00,0x00,0x00
000868  00000000          DCB      0x00,0x00,0x00,0x00
00086c  00000000          DCB      0x00,0x00,0x00,0x00
000870  000000ff          DCB      0x00,0x00,0x00,0xff
000874  00060800          DCB      0x00,0x06,0x08,0x00
000878  00000000          DCB      0x00,0x00,0x00,0x00
00087c  00000000          DCB      0x00,0x00,0x00,0x00
000880  00000000          DCB      0x00,0x00,0x00,0x00
000884  00000000          DCB      0x00,0x00,0x00,0x00
000888  0000003c          DCB      0x00,0x00,0x00,0x3c
00088c  42784442          DCB      0x42,0x78,0x44,0x42
000890  42fc0000          DCB      0x42,0xfc,0x00,0x00
000894  00000003          DCB      0x00,0x00,0x00,0x03
000898  0202021a          DCB      0x02,0x02,0x02,0x1a
00089c  26424242          DCB      0x26,0x42,0x42,0x42
0008a0  261a0000          DCB      0x26,0x1a,0x00,0x00
0008a4  00000000          DCB      0x00,0x00,0x00,0x00
0008a8  00000038          DCB      0x00,0x00,0x00,0x38
0008ac  44020202          DCB      0x44,0x02,0x02,0x02
0008b0  44380000          DCB      0x44,0x38,0x00,0x00
0008b4  00000060          DCB      0x00,0x00,0x00,0x60
0008b8  40404078          DCB      0x40,0x40,0x40,0x78
0008bc  44424242          DCB      0x44,0x42,0x42,0x42
0008c0  64d80000          DCB      0x64,0xd8,0x00,0x00
0008c4  00000000          DCB      0x00,0x00,0x00,0x00
0008c8  0000003c          DCB      0x00,0x00,0x00,0x3c
0008cc  427e0202          DCB      0x42,0x7e,0x02,0x02
0008d0  423c0000          DCB      0x42,0x3c,0x00,0x00
0008d4  000000f0          DCB      0x00,0x00,0x00,0xf0
0008d8  8808087e          DCB      0x88,0x08,0x08,0x7e
0008dc  08080808          DCB      0x08,0x08,0x08,0x08
0008e0  083e0000          DCB      0x08,0x3e,0x00,0x00
0008e4  00000000          DCB      0x00,0x00,0x00,0x00
0008e8  0000007c          DCB      0x00,0x00,0x00,0x7c
0008ec  22221c02          DCB      0x22,0x22,0x1c,0x02
0008f0  3c42423c          DCB      0x3c,0x42,0x42,0x3c
0008f4  00000003          DCB      0x00,0x00,0x00,0x03
0008f8  0202023a          DCB      0x02,0x02,0x02,0x3a
0008fc  46424242          DCB      0x46,0x42,0x42,0x42
000900  42e70000          DCB      0x42,0xe7,0x00,0x00
000904  0000000c          DCB      0x00,0x00,0x00,0x0c
000908  0c00000e          DCB      0x0c,0x00,0x00,0x0e
00090c  08080808          DCB      0x08,0x08,0x08,0x08
000910  083e0000          DCB      0x08,0x3e,0x00,0x00
000914  00000030          DCB      0x00,0x00,0x00,0x30
000918  30000038          DCB      0x30,0x00,0x00,0x38
00091c  20202020          DCB      0x20,0x20,0x20,0x20
000920  2020221e          DCB      0x20,0x20,0x22,0x1e
000924  00000003          DCB      0x00,0x00,0x00,0x03
000928  02020272          DCB      0x02,0x02,0x02,0x72
00092c  120a1612          DCB      0x12,0x0a,0x16,0x12
000930  22770000          DCB      0x22,0x77,0x00,0x00
000934  0000000e          DCB      0x00,0x00,0x00,0x0e
000938  08080808          DCB      0x08,0x08,0x08,0x08
00093c  08080808          DCB      0x08,0x08,0x08,0x08
000940  083e0000          DCB      0x08,0x3e,0x00,0x00
000944  00000000          DCB      0x00,0x00,0x00,0x00
000948  0000007f          DCB      0x00,0x00,0x00,0x7f
00094c  92929292          DCB      0x92,0x92,0x92,0x92
000950  92b70000          DCB      0x92,0xb7,0x00,0x00
000954  00000000          DCB      0x00,0x00,0x00,0x00
000958  0000003b          DCB      0x00,0x00,0x00,0x3b
00095c  46424242          DCB      0x46,0x42,0x42,0x42
000960  42e70000          DCB      0x42,0xe7,0x00,0x00
000964  00000000          DCB      0x00,0x00,0x00,0x00
000968  0000003c          DCB      0x00,0x00,0x00,0x3c
00096c  42424242          DCB      0x42,0x42,0x42,0x42
000970  423c0000          DCB      0x42,0x3c,0x00,0x00
000974  00000000          DCB      0x00,0x00,0x00,0x00
000978  0000001b          DCB      0x00,0x00,0x00,0x1b
00097c  26424242          DCB      0x26,0x42,0x42,0x42
000980  221e0207          DCB      0x22,0x1e,0x02,0x07
000984  00000000          DCB      0x00,0x00,0x00,0x00
000988  00000078          DCB      0x00,0x00,0x00,0x78
00098c  44424242          DCB      0x44,0x42,0x42,0x42
000990  447840e0          DCB      0x44,0x78,0x40,0xe0
000994  00000000          DCB      0x00,0x00,0x00,0x00
000998  00000077          DCB      0x00,0x00,0x00,0x77
00099c  4c040404          DCB      0x4c,0x04,0x04,0x04
0009a0  041f0000          DCB      0x04,0x1f,0x00,0x00
0009a4  00000000          DCB      0x00,0x00,0x00,0x00
0009a8  0000007c          DCB      0x00,0x00,0x00,0x7c
0009ac  42023c40          DCB      0x42,0x02,0x3c,0x40
0009b0  423e0000          DCB      0x42,0x3e,0x00,0x00
0009b4  00000000          DCB      0x00,0x00,0x00,0x00
0009b8  0008083e          DCB      0x00,0x08,0x08,0x3e
0009bc  08080808          DCB      0x08,0x08,0x08,0x08
0009c0  08300000          DCB      0x08,0x30,0x00,0x00
0009c4  00000000          DCB      0x00,0x00,0x00,0x00
0009c8  00000063          DCB      0x00,0x00,0x00,0x63
0009cc  42424242          DCB      0x42,0x42,0x42,0x42
0009d0  62dc0000          DCB      0x62,0xdc,0x00,0x00
0009d4  00000000          DCB      0x00,0x00,0x00,0x00
0009d8  000000e7          DCB      0x00,0x00,0x00,0xe7
0009dc  42242414          DCB      0x42,0x24,0x24,0x14
0009e0  08080000          DCB      0x08,0x08,0x00,0x00
0009e4  00000000          DCB      0x00,0x00,0x00,0x00
0009e8  000000eb          DCB      0x00,0x00,0x00,0xeb
0009ec  49495555          DCB      0x49,0x49,0x55,0x55
0009f0  22220000          DCB      0x22,0x22,0x00,0x00
0009f4  00000000          DCB      0x00,0x00,0x00,0x00
0009f8  00000076          DCB      0x00,0x00,0x00,0x76
0009fc  24181818          DCB      0x24,0x18,0x18,0x18
000a00  246e0000          DCB      0x24,0x6e,0x00,0x00
000a04  00000000          DCB      0x00,0x00,0x00,0x00
000a08  000000e7          DCB      0x00,0x00,0x00,0xe7
000a0c  42242414          DCB      0x42,0x24,0x24,0x14
000a10  18080807          DCB      0x18,0x08,0x08,0x07
000a14  00000000          DCB      0x00,0x00,0x00,0x00
000a18  0000007e          DCB      0x00,0x00,0x00,0x7e
000a1c  22100808          DCB      0x22,0x10,0x08,0x08
000a20  447e0000          DCB      0x44,0x7e,0x00,0x00
000a24  00c02020          DCB      0x00,0xc0,0x20,0x20
000a28  20202010          DCB      0x20,0x20,0x20,0x10
000a2c  20202020          DCB      0x20,0x20,0x20,0x20
000a30  2020c000          DCB      0x20,0x20,0xc0,0x00
000a34  10101010          DCB      0x10,0x10,0x10,0x10
000a38  10101010          DCB      0x10,0x10,0x10,0x10
000a3c  10101010          DCB      0x10,0x10,0x10,0x10
000a40  10101010          DCB      0x10,0x10,0x10,0x10
000a44  00060808          DCB      0x00,0x06,0x08,0x08
000a48  08080810          DCB      0x08,0x08,0x08,0x10
000a4c  08080808          DCB      0x08,0x08,0x08,0x08
000a50  08080600          DCB      0x08,0x08,0x06,0x00
000a54  0c32c200          DCB      0x0c,0x32,0xc2,0x00
000a58  00000000          DCB      0x00,0x00,0x00,0x00
000a5c  00000000          DCB      0x00,0x00,0x00,0x00
000a60  00000000          DCB      0x00,0x00,0x00,0x00
                  tfont16
000a64  d6d00100          DCB      0xd6,0xd0,0x01,0x00
000a68  01000100          DCB      0x01,0x00,0x01,0x00
000a6c  01003ff8          DCB      0x01,0x00,0x3f,0xf8
000a70  21082108          DCB      0x21,0x08,0x21,0x08
000a74  21082108          DCB      0x21,0x08,0x21,0x08
000a78  21083ff8          DCB      0x21,0x08,0x3f,0xf8
000a7c  21080100          DCB      0x21,0x08,0x01,0x00
000a80  01000100          DCB      0x01,0x00,0x01,0x00
000a84  0100cec2          DCB      0x01,0x00,0xce,0xc2
000a88  000023f8          DCB      0x00,0x00,0x23,0xf8
000a8c  12081208          DCB      0x12,0x08,0x12,0x08
000a90  83f84208          DCB      0x83,0xf8,0x42,0x08
000a94  420813f8          DCB      0x42,0x08,0x13,0xf8
000a98  100027fc          DCB      0x10,0x00,0x27,0xfc
000a9c  e4a424a4          DCB      0xe4,0xa4,0x24,0xa4
000aa0  24a424a4          DCB      0x24,0xa4,0x24,0xa4
000aa4  2ffe0000          DCB      0x2f,0xfe,0x00,0x00
000aa8  b6c80100          DCB      0xb6,0xc8,0x01,0x00
000aac  00803ffe          DCB      0x00,0x80,0x3f,0xfe
000ab0  22202220          DCB      0x22,0x20,0x22,0x20
000ab4  3ffc2220          DCB      0x3f,0xfc,0x22,0x20
000ab8  222023e0          DCB      0x22,0x20,0x23,0xe0
000abc  20002ff0          DCB      0x20,0x00,0x2f,0xf0
000ac0  24104220          DCB      0x24,0x10,0x42,0x20
000ac4  41c08630          DCB      0x41,0xc0,0x86,0x30
000ac8  380ecaaa          DCB      0x38,0x0e,0xca,0xaa
000acc  000027f8          DCB      0x00,0x00,0x27,0xf8
000ad0  14081408          DCB      0x14,0x08,0x14,0x08
000ad4  87f84408          DCB      0x87,0xf8,0x44,0x08
000ad8  440817f8          DCB      0x44,0x08,0x17,0xf8
000adc  11202120          DCB      0x11,0x20,0x21,0x20
000ae0  e9242528          DCB      0xe9,0x24,0x25,0x28
000ae4  23302120          DCB      0x23,0x30,0x21,0x20
000ae8  2ffe0000          DCB      0x2f,0xfe,0x00,0x00
000aec  c4da0100          DCB      0xc4,0xda,0x01,0x00
000af0  01000100          DCB      0x01,0x00,0x01,0x00
000af4  7ffc4104          DCB      0x7f,0xfc,0x41,0x04
000af8  41044104          DCB      0x41,0x04,0x41,0x04
000afc  42844244          DCB      0x42,0x84,0x42,0x44
000b00  44244814          DCB      0x44,0x24,0x48,0x14
000b04  50144004          DCB      0x50,0x14,0x40,0x04
000b08  40044014          DCB      0x40,0x04,0x40,0x14
000b0c  4008bdad          DCB      0x40,0x08,0xbd,0xad
000b10  00002000          DCB      0x00,0x00,0x20,0x00
000b14  17fc1040          DCB      0x17,0xfc,0x10,0x40
000b18  80404040          DCB      0x80,0x40,0x40,0x40
000b1c  48400840          DCB      0x48,0x40,0x08,0x40
000b20  10401040          DCB      0x10,0x40,0x10,0x40
000b24  e0402040          DCB      0xe0,0x40,0x20,0x40
000b28  20402ffe          DCB      0x20,0x40,0x2f,0xfe
000b2c  20000000          DCB      0x20,0x00,0x00,0x00
000b30  caa60800          DCB      0xca,0xa6,0x08,0x00
000b34  0bfe4820          DCB      0x0b,0xfe,0x48,0x20
000b38  48204820          DCB      0x48,0x20,0x48,0x20
000b3c  49fc4924          DCB      0x49,0xfc,0x49,0x24
000b40  49244924          DCB      0x49,0x24,0x49,0x24
000b44  49244924          DCB      0x49,0x24,0x49,0x24
000b48  09341128          DCB      0x09,0x34,0x11,0x28
000b4c  10202020          DCB      0x10,0x20,0x20,0x20
000b50  4020b7b6          DCB      0x40,0x20,0xb7,0xb6
000b54  04400440          DCB      0x04,0x40,0x04,0x40
000b58  fffe0440          DCB      0xff,0xfe,0x04,0x40
000b5c  100009f8          DCB      0x10,0x00,0x09,0xf8
000b60  49082108          DCB      0x49,0x08,0x21,0x08
000b64  25080528          DCB      0x25,0x08,0x05,0x28
000b68  09107102          DCB      0x09,0x10,0x71,0x02
000b6c  11021102          DCB      0x11,0x02,0x11,0x02
000b70  10fe0000          DCB      0x10,0xfe,0x00,0x00
000b74  d1a72208          DCB      0xd1,0xa7,0x22,0x08
000b78  11081110          DCB      0x11,0x08,0x11,0x10
000b7c  00207ffe          DCB      0x00,0x20,0x7f,0xfe
000b80  40028004          DCB      0x40,0x02,0x80,0x04
000b84  1fe00040          DCB      0x1f,0xe0,0x00,0x40
000b88  0180fffe          DCB      0x01,0x80,0xff,0xfe
000b8c  01000100          DCB      0x01,0x00,0x01,0x00
000b90  01000500          DCB      0x01,0x00,0x05,0x00
000b94  0200d4ba          DCB      0x02,0x00,0xd4,0xba
000b98  00407820          DCB      0x00,0x40,0x78,0x20
000b9c  4bfe5202          DCB      0x4b,0xfe,0x52,0x02
000ba0  540461f8          DCB      0x54,0x04,0x61,0xf8
000ba4  50004800          DCB      0x50,0x00,0x48,0x00
000ba8  4bfe4890          DCB      0x4b,0xfe,0x48,0x90
000bac  68905090          DCB      0x68,0x90,0x50,0x90
000bb0  41124112          DCB      0x41,0x12,0x41,0x12
000bb4  420e4400          DCB      0x42,0x0e,0x44,0x00
000bb8  c8cb0100          DCB      0xc8,0xcb,0x01,0x00
000bbc  01000100          DCB      0x01,0x00,0x01,0x00
000bc0  01000100          DCB      0x01,0x00,0x01,0x00
000bc4  01000280          DCB      0x01,0x00,0x02,0x80
000bc8  02800440          DCB      0x02,0x80,0x04,0x40
000bcc  04400820          DCB      0x04,0x40,0x08,0x20
000bd0  08201010          DCB      0x08,0x20,0x10,0x10
000bd4  20084004          DCB      0x20,0x08,0x40,0x04
000bd8  8002cce5          DCB      0x80,0x02,0xcc,0xe5
000bdc  08400840          DCB      0x08,0x40,0x08,0x40
000be0  08401040          DCB      0x08,0x40,0x10,0x40
000be4  17fc3040          DCB      0x17,0xfc,0x30,0x40
000be8  30e050e0          DCB      0x30,0xe0,0x50,0xe0
000bec  91501150          DCB      0x91,0x50,0x11,0x50
000bf0  124815f4          DCB      0x12,0x48,0x15,0xf4
000bf4  18421040          DCB      0x18,0x42,0x10,0x40
000bf8  10401040          DCB      0x10,0x40,0x10,0x40
000bfc  d6b50840          DCB      0xd6,0xb5,0x08,0x40
000c00  08400ffc          DCB      0x08,0x40,0x0f,0xfc
000c04  10401040          DCB      0x10,0x40,0x10,0x40
000c08  33f83208          DCB      0x33,0xf8,0x32,0x08
000c0c  53f89208          DCB      0x53,0xf8,0x92,0x08
000c10  13f81208          DCB      0x13,0xf8,0x12,0x08
000c14  13f81208          DCB      0x13,0xf8,0x12,0x08
000c18  12081ffe          DCB      0x12,0x08,0x1f,0xfe
000c1c  1000d7cf          DCB      0x10,0x00,0xd7,0xcf
000c20  08802888          DCB      0x08,0x80,0x28,0x88
000c24  2ef02884          DCB      0x2e,0xf0,0x28,0x84
000c28  2e84f07c          DCB      0x2e,0x84,0xf0,0x7c
000c2c  02000420          DCB      0x02,0x00,0x04,0x20
000c30  1fc00180          DCB      0x1f,0xc0,0x01,0x80
000c34  06103ff8          DCB      0x06,0x10,0x3f,0xf8
000c38  01081120          DCB      0x01,0x08,0x11,0x20
000c3c  25104208          DCB      0x25,0x10,0x42,0x08
000c40  cde21040          DCB      0xcd,0xe2,0x10,0x40
000c44  10401040          DCB      0x10,0x40,0x10,0x40
000c48  10403e40          DCB      0x10,0x40,0x3e,0x40
000c4c  22604250          DCB      0x22,0x60,0x42,0x50
000c50  4248a444          DCB      0x42,0x48,0xa4,0x44
000c54  14440840          DCB      0x14,0x44,0x08,0x40
000c58  08401040          DCB      0x08,0x40,0x10,0x40
000c5c  20404040          DCB      0x20,0x40,0x40,0x40
000c60  8040cfdf          DCB      0x80,0x40,0xcf,0xdf
000c64  10501048          DCB      0x10,0x50,0x10,0x48
000c68  2040245c          DCB      0x20,0x40,0x24,0x5c
000c6c  45e0f840          DCB      0x45,0xe0,0xf8,0x40
000c70  105e23e0          DCB      0x10,0x5e,0x23,0xe0
000c74  4044fc48          DCB      0x40,0x44,0xfc,0x48
000c78  40300022          DCB      0x40,0x30,0x00,0x22
000c7c  1c52e08a          DCB      0x1c,0x52,0xe0,0x8a
000c80  43060002          DCB      0x43,0x06,0x00,0x02
000c84  bdf00100          DCB      0xbd,0xf0,0x01,0x00
000c88  01000280          DCB      0x01,0x00,0x02,0x80
000c8c  04400820          DCB      0x04,0x40,0x08,0x20
000c90  10102fe8          DCB      0x10,0x10,0x2f,0xe8
000c94  c1060100          DCB      0xc1,0x06,0x01,0x00
000c98  3ff80100          DCB      0x3f,0xf8,0x01,0x00
000c9c  11100910          DCB      0x11,0x10,0x09,0x10
000ca0  0920fffe          DCB      0x09,0x20,0xff,0xfe
000ca4  0000c5f4          DCB      0x00,0x00,0xc5,0xf4
000ca8  00107720          DCB      0x00,0x10,0x77,0x20
000cac  557c5544          DCB      0x55,0x7c,0x55,0x44
000cb0  55647754          DCB      0x55,0x64,0x77,0x54
000cb4  5544554c          DCB      0x55,0x44,0x55,0x4c
000cb8  5540777e          DCB      0x55,0x40,0x77,0x7e
000cbc  55025502          DCB      0x55,0x02,0x55,0x02
000cc0  557ab502          DCB      0x55,0x7a,0xb5,0x02
000cc4  890a1304          DCB      0x89,0x0a,0x13,0x04
000cc8  d3d00200          DCB      0xd3,0xd0,0x02,0x00
000ccc  0200fffe          DCB      0x02,0x00,0xff,0xfe
000cd0  04000400          DCB      0x04,0x00,0x04,0x00
000cd4  0ff00810          DCB      0x0f,0xf0,0x08,0x10
000cd8  18102ff0          DCB      0x18,0x10,0x2f,0xf0
000cdc  48108810          DCB      0x48,0x10,0x88,0x10
000ce0  0ff00810          DCB      0x0f,0xf0,0x08,0x10
000ce4  08100850          DCB      0x08,0x10,0x08,0x50
000ce8  0820cfde          DCB      0x08,0x20,0xcf,0xde
000cec  00007bf8          DCB      0x00,0x00,0x7b,0xf8
000cf0  4a085208          DCB      0x4a,0x08,0x52,0x08
000cf4  53f86208          DCB      0x53,0xf8,0x62,0x08
000cf8  52084bf8          DCB      0x52,0x08,0x4b,0xf8
000cfc  4a444a48          DCB      0x4a,0x44,0x4a,0x48
000d00  6a305220          DCB      0x6a,0x30,0x52,0x20
000d04  42104288          DCB      0x42,0x10,0x42,0x88
000d08  43064200          DCB      0x43,0x06,0x42,0x00
000d0c  b9ab0080          DCB      0xb9,0xab,0x00,0x80
000d10  04800480          DCB      0x04,0x80,0x04,0x80
000d14  08400840          DCB      0x08,0x40,0x08,0x40
000d18  10202010          DCB      0x10,0x20,0x20,0x10
000d1c  42088206          DCB      0x42,0x08,0x82,0x06
000d20  04000440          DCB      0x04,0x00,0x04,0x40
000d24  08201020          DCB      0x08,0x20,0x10,0x20
000d28  3ff01010          DCB      0x3f,0xf0,0x10,0x10
000d2c  0000cbbe          DCB      0x00,0x00,0xcb,0xbe
000d30  00003ff8          DCB      0x00,0x00,0x3f,0xf8
000d34  00080008          DCB      0x00,0x08,0x00,0x08
000d38  7fe80008          DCB      0x7f,0xe8,0x00,0x08
000d3c  00081f88          DCB      0x00,0x08,0x1f,0x88
000d40  10881088          DCB      0x10,0x88,0x10,0x88
000d44  10881088          DCB      0x10,0x88,0x10,0x88
000d48  1f881088          DCB      0x1f,0x88,0x10,0x88
000d4c  00280010          DCB      0x00,0x28,0x00,0x10
000d50  b7c90000          DCB      0xb7,0xc9,0x00,0x00
000d54  ffc00040          DCB      0xff,0xc0,0x00,0x40
000d58  00440048          DCB      0x00,0x44,0x00,0x48
000d5c  00500060          DCB      0x00,0x50,0x00,0x60
000d60  00500048          DCB      0x00,0x50,0x00,0x48
000d64  00440020          DCB      0x00,0x44,0x00,0x20
000d68  00200012          DCB      0x00,0x20,0x00,0x12
000d6c  000a0006          DCB      0x00,0x0a,0x00,0x06
000d70  0002ccec          DCB      0x00,0x02,0xcc,0xec
000d74  00003ff8          DCB      0x00,0x00,0x3f,0xf8
000d78  01000100          DCB      0x01,0x00,0x01,0x00
000d7c  01000100          DCB      0x01,0x00,0x01,0x00
000d80  fffe0100          DCB      0xff,0xfe,0x01,0x00
000d84  02800280          DCB      0x02,0x80,0x02,0x80
000d88  04400440          DCB      0x04,0x40,0x04,0x40
000d8c  08201010          DCB      0x08,0x20,0x10,0x10
000d90  2008c006          DCB      0x20,0x08,0xc0,0x06
000d94  cfb500f8          DCB      0xcf,0xb5,0x00,0xf8
000d98  3f000400          DCB      0x3f,0x00,0x04,0x00
000d9c  08201040          DCB      0x08,0x20,0x10,0x40
000da0  3f800100          DCB      0x3f,0x80,0x01,0x00
000da4  06101808          DCB      0x06,0x10,0x18,0x08
000da8  7ffc0104          DCB      0x7f,0xfc,0x01,0x04
000dac  09201110          DCB      0x09,0x20,0x11,0x10
000db0  21084504          DCB      0x21,0x08,0x45,0x04
000db4  0200cdb3          DCB      0x02,0x00,0xcd,0xb3
000db8  10401020          DCB      0x10,0x40,0x10,0x20
000dbc  202023fe          DCB      0x20,0x20,0x23,0xfe
000dc0  4840f888          DCB      0x48,0x40,0xf8,0x88
000dc4  110423fe          DCB      0x11,0x04,0x23,0xfe
000dc8  4092f890          DCB      0x40,0x92,0xf8,0x90
000dcc  40900090          DCB      0x40,0x90,0x00,0x90
000dd0  1912e112          DCB      0x19,0x12,0xe1,0x12
000dd4  420e0400          DCB      0x42,0x0e,0x04,0x00
000dd8  b9e20100          DCB      0xb9,0xe2,0x01,0x00
000ddc  21081108          DCB      0x21,0x08,0x11,0x08
000de0  09100920          DCB      0x09,0x10,0x09,0x20
000de4  0100fffe          DCB      0x01,0x00,0xff,0xfe
000de8  04400440          DCB      0x04,0x40,0x04,0x40
000dec  04400440          DCB      0x04,0x40,0x04,0x40
000df0  08420842          DCB      0x08,0x42,0x08,0x42
000df4  1042203e          DCB      0x10,0x42,0x20,0x3e
000df8  c000c3f4          DCB      0xc0,0x00,0xc3,0xf4
000dfc  40204020          DCB      0x40,0x20,0x40,0x20
000e00  7f20803e          DCB      0x7f,0x20,0x80,0x3e
000e04  7e444244          DCB      0x7e,0x44,0x42,0x44
000e08  52444aa4          DCB      0x52,0x44,0x4a,0xa4
000e0c  ffa84228          DCB      0xff,0xa8,0x42,0x28
000e10  92108a10          DCB      0x92,0x10,0x8a,0x10
000e14  ff280248          DCB      0xff,0x28,0x02,0x48
000e18  14840902          DCB      0x14,0x84,0x09,0x02
000e1c  d3ea0000          DCB      0xd3,0xea,0x00,0x00
000e20  fffe0100          DCB      0xff,0xfe,0x01,0x00
000e24  01000100          DCB      0x01,0x00,0x01,0x00
000e28  7ffc4104          DCB      0x7f,0xfc,0x41,0x04
000e2c  41044944          DCB      0x41,0x04,0x49,0x44
000e30  45244104          DCB      0x45,0x24,0x41,0x04
000e34  49444524          DCB      0x49,0x44,0x45,0x24
000e38  41044114          DCB      0x41,0x04,0x41,0x14
000e3c  4008b5ce          DCB      0x40,0x08,0xb5,0xce
000e40  00802040          DCB      0x00,0x80,0x20,0x40
000e44  17fc1110          DCB      0x17,0xfc,0x11,0x10
000e48  80a047fc          DCB      0x80,0xa0,0x47,0xfc
000e4c  444415f4          DCB      0x44,0x44,0x15,0xf4
000e50  144425f4          DCB      0x14,0x44,0x25,0xf4
000e54  e5142514          DCB      0xe5,0x14,0x25,0x14
000e58  25f42404          DCB      0x25,0xf4,0x24,0x04
000e5c  24140408          DCB      0x24,0x14,0x04,0x08
000e60  b5e70100          DCB      0xb5,0xe7,0x01,0x00
000e64  01000100          DCB      0x01,0x00,0x01,0x00
000e68  3ff82108          DCB      0x3f,0xf8,0x21,0x08
000e6c  21082108          DCB      0x21,0x08,0x21,0x08
000e70  3ff82108          DCB      0x3f,0xf8,0x21,0x08
000e74  21082108          DCB      0x21,0x08,0x21,0x08
000e78  3ff8210a          DCB      0x3f,0xf8,0x21,0x0a
000e7c  01020102          DCB      0x01,0x02,0x01,0x02
000e80  00febbfa          DCB      0x00,0xfe,0xbb,0xfa
000e84  100011f0          DCB      0x10,0x00,0x11,0xf0
000e88  11101110          DCB      0x11,0x10,0x11,0x10
000e8c  fd101110          DCB      0xfd,0x10,0x11,0x10
000e90  31103910          DCB      0x31,0x10,0x39,0x10
000e94  55105510          DCB      0x55,0x10,0x55,0x10
000e98  91101112          DCB      0x91,0x10,0x11,0x12
000e9c  11121212          DCB      0x11,0x12,0x12,0x12
000ea0  120e1400          DCB      0x12,0x0e,0x14,0x00
000ea4  d5fd0000          DCB      0xd5,0xfd,0x00,0x00
000ea8  7ffc0100          DCB      0x7f,0xfc,0x01,0x00
000eac  01000100          DCB      0x01,0x00,0x01,0x00
000eb0  01001100          DCB      0x01,0x00,0x11,0x00
000eb4  11f81100          DCB      0x11,0xf8,0x11,0x00
000eb8  11001100          DCB      0x11,0x00,0x11,0x00
000ebc  11001100          DCB      0x11,0x00,0x11,0x00
000ec0  1100fffe          DCB      0x11,0x00,0xff,0xfe
000ec4  0000d7aa          DCB      0x00,0x00,0xd7,0xaa
000ec8  20202020          DCB      0x20,0x20,0x20,0x20
000ecc  2020fdfc          DCB      0x20,0x20,0xfd,0xfc
000ed0  40205040          DCB      0x40,0x20,0x50,0x40
000ed4  93fefc40          DCB      0x93,0xfe,0xfc,0x40
000ed8  108011fc          DCB      0x10,0x80,0x11,0xfc
000edc  1c04f088          DCB      0x1c,0x04,0xf0,0x88
000ee0  50501020          DCB      0x50,0x50,0x10,0x20
000ee4  10101010          DCB      0x10,0x10,0x10,0x10
000ee8  b7b40010          DCB      0xb7,0xb4,0x00,0x10
000eec  00f83f00          DCB      0x00,0xf8,0x3f,0x00
000ef0  20002000          DCB      0x20,0x00,0x20,0x00
000ef4  3ff82408          DCB      0x3f,0xf8,0x24,0x08
000ef8  24102210          DCB      0x24,0x10,0x22,0x10
000efc  22202140          DCB      0x22,0x20,0x21,0x40
000f00  20804140          DCB      0x20,0x80,0x41,0x40
000f04  42208c18          DCB      0x42,0x20,0x8c,0x18
000f08  3006d7aa          DCB      0x30,0x06,0xd7,0xaa
000f0c  20202020          DCB      0x20,0x20,0x20,0x20
000f10  2020fdfc          DCB      0x20,0x20,0xfd,0xfc
000f14  40205040          DCB      0x40,0x20,0x50,0x40
000f18  93fefc40          DCB      0x93,0xfe,0xfc,0x40
000f1c  108011fc          DCB      0x10,0x80,0x11,0xfc
000f20  1c04f088          DCB      0x1c,0x04,0xf0,0x88
000f24  50501020          DCB      0x50,0x50,0x10,0x20
000f28  10101010          DCB      0x10,0x10,0x10,0x10
000f2c  b6e60820          DCB      0xb6,0xe6,0x08,0x20
000f30  10103e10          DCB      0x10,0x10,0x3e,0x10
000f34  22fe3282          DCB      0x22,0xfe,0x32,0x82
000f38  2a842a40          DCB      0x2a,0x84,0x2a,0x40
000f3c  fe442248          DCB      0xfe,0x44,0x22,0x48
000f40  32502a60          DCB      0x32,0x50,0x2a,0x60
000f44  2a422242          DCB      0x2a,0x42,0x22,0x42
000f48  42424a3e          DCB      0x42,0x42,0x4a,0x3e
000f4c  8400bbfa          DCB      0x84,0x00,0xbb,0xfa
000f50  100011f0          DCB      0x10,0x00,0x11,0xf0
000f54  11101110          DCB      0x11,0x10,0x11,0x10
000f58  fd101110          DCB      0xfd,0x10,0x11,0x10
000f5c  31103910          DCB      0x31,0x10,0x39,0x10
000f60  55105510          DCB      0x55,0x10,0x55,0x10
000f64  91101112          DCB      0x91,0x10,0x11,0x12
000f68  11121212          DCB      0x11,0x12,0x12,0x12
000f6c  120e1400          DCB      0x12,0x0e,0x14,0x00
000f70  b5e70100          DCB      0xb5,0xe7,0x01,0x00
000f74  01000100          DCB      0x01,0x00,0x01,0x00
000f78  3ff82108          DCB      0x3f,0xf8,0x21,0x08
000f7c  21082108          DCB      0x21,0x08,0x21,0x08
000f80  3ff82108          DCB      0x3f,0xf8,0x21,0x08
000f84  21082108          DCB      0x21,0x08,0x21,0x08
000f88  3ff8210a          DCB      0x3f,0xf8,0x21,0x0a
000f8c  01020102          DCB      0x01,0x02,0x01,0x02
000f90  00feb7e7          DCB      0x00,0xfe,0xb7,0xe7
000f94  00003ff0          DCB      0x00,0x00,0x3f,0xf0
000f98  20102010          DCB      0x20,0x10,0x20,0x10
000f9c  28502450          DCB      0x28,0x50,0x24,0x50
000fa0  22902290          DCB      0x22,0x90,0x22,0x90
000fa4  21102110          DCB      0x21,0x10,0x21,0x10
000fa8  22902292          DCB      0x22,0x90,0x22,0x92
000fac  244a484a          DCB      0x24,0x4a,0x48,0x4a
000fb0  40068002          DCB      0x40,0x06,0x80,0x02
000fb4  c9c80200          DCB      0xc9,0xc8,0x02,0x00
000fb8  01003ffc          DCB      0x01,0x00,0x3f,0xfc
000fbc  20042004          DCB      0x20,0x04,0x20,0x04
000fc0  3ffc2000          DCB      0x3f,0xfc,0x20,0x00
000fc4  20003f7c          DCB      0x20,0x00,0x3f,0x7c
000fc8  21042924          DCB      0x21,0x04,0x29,0x24
000fcc  25144924          DCB      0x25,0x14,0x49,0x24
000fd0  51448514          DCB      0x51,0x44,0x85,0x14
000fd4  0208cca8          DCB      0x02,0x08,0xcc,0xa8
000fd8  02000200          DCB      0x02,0x00,0x02,0x00
000fdc  04000820          DCB      0x04,0x00,0x08,0x20
000fe0  10102008          DCB      0x10,0x10,0x20,0x08
000fe4  7ffc2004          DCB      0x7f,0xfc,0x20,0x04
000fe8  00001ff0          DCB      0x00,0x00,0x1f,0xf0
000fec  10101010          DCB      0x10,0x10,0x10,0x10
000ff0  10101010          DCB      0x10,0x10,0x10,0x10
000ff4  1ff01010          DCB      0x1f,0xf0,0x10,0x10
000ff8  b5c61000          DCB      0xb5,0xc6,0x10,0x00
000ffc  100013fe          DCB      0x10,0x00,0x13,0xfe
001000  10205420          DCB      0x10,0x20,0x54,0x20
001004  58205020          DCB      0x58,0x20,0x50,0x20
001008  90201020          DCB      0x90,0x20,0x10,0x20
00100c  10201020          DCB      0x10,0x20,0x10,0x20
001010  28202420          DCB      0x28,0x20,0x24,0x20
001014  442040a0          DCB      0x44,0x20,0x40,0xa0
001018  8040bfaa          DCB      0x80,0x40,0xbf,0xaa
00101c  00007ffc          DCB      0x00,0x00,0x7f,0xfc
001020  08200820          DCB      0x08,0x20,0x08,0x20
001024  08200820          DCB      0x08,0x20,0x08,0x20
001028  0820fffe          DCB      0x08,0x20,0xff,0xfe
00102c  08200820          DCB      0x08,0x20,0x08,0x20
001030  08200820          DCB      0x08,0x20,0x08,0x20
001034  10201020          DCB      0x10,0x20,0x10,0x20
001038  20204020          DCB      0x20,0x20,0x40,0x20
00103c  b9d81010          DCB      0xb9,0xd8,0x10,0x10
001040  08100820          DCB      0x08,0x10,0x08,0x20
001044  00003ff8          DCB      0x00,0x00,0x3f,0xf8
001048  01000100          DCB      0x01,0x00,0x01,0x00
00104c  0100fffe          DCB      0x01,0x00,0xff,0xfe
001050  01000280          DCB      0x01,0x00,0x02,0x80
001054  02800440          DCB      0x02,0x80,0x04,0x40
001058  08203018          DCB      0x08,0x20,0x30,0x18
00105c  c006b4f2          DCB      0xc0,0x06,0xb4,0xf2
001060  10001000          DCB      0x10,0x00,0x10,0x00
001064  13fe1020          DCB      0x13,0xfe,0x10,0x20
001068  fc201020          DCB      0xfc,0x20,0x10,0x20
00106c  10201420          DCB      0x10,0x20,0x14,0x20
001070  18203020          DCB      0x18,0x20,0x30,0x20
001074  d0201020          DCB      0xd0,0x20,0x10,0x20
001078  10201020          DCB      0x10,0x20,0x10,0x20
00107c  50a02040          DCB      0x50,0xa0,0x20,0x40
001080  b1d52000          DCB      0xb1,0xd5,0x20,0x00
001084  17fc0004          DCB      0x17,0xfc,0x00,0x04
001088  40844084          DCB      0x40,0x84,0x40,0x84
00108c  5ff44084          DCB      0x5f,0xf4,0x40,0x84
001090  41844284          DCB      0x41,0x84,0x42,0x84
001094  44844884          DCB      0x44,0x84,0x48,0x84
001098  50844284          DCB      0x50,0x84,0x42,0x84
00109c  41044014          DCB      0x41,0x04,0x40,0x14
0010a0  4008d3ea          DCB      0x40,0x08,0xd3,0xea
0010a4  0000fffe          DCB      0x00,0x00,0xff,0xfe
0010a8  01000100          DCB      0x01,0x00,0x01,0x00
0010ac  01007ffc          DCB      0x01,0x00,0x7f,0xfc
0010b0  41044104          DCB      0x41,0x04,0x41,0x04
0010b4  49444524          DCB      0x49,0x44,0x45,0x24
0010b8  41044944          DCB      0x41,0x04,0x49,0x44
0010bc  45244104          DCB      0x45,0x24,0x41,0x04
0010c0  41144008          DCB      0x41,0x14,0x40,0x08
0010c4  b5ce0080          DCB      0xb5,0xce,0x00,0x80
0010c8  204017fc          DCB      0x20,0x40,0x17,0xfc
0010cc  111080a0          DCB      0x11,0x10,0x80,0xa0
0010d0  47fc4444          DCB      0x47,0xfc,0x44,0x44
0010d4  15f41444          DCB      0x15,0xf4,0x14,0x44
0010d8  25f4e514          DCB      0x25,0xf4,0xe5,0x14
0010dc  251425f4          DCB      0x25,0x14,0x25,0xf4
0010e0  24042414          DCB      0x24,0x04,0x24,0x14
0010e4  0408d4c6          DCB      0x04,0x08,0xd4,0xc6
0010e8  00003ff8          DCB      0x00,0x00,0x3f,0xf8
0010ec  00000000          DCB      0x00,0x00,0x00,0x00
0010f0  00000000          DCB      0x00,0x00,0x00,0x00
0010f4  fffe0200          DCB      0xff,0xfe,0x02,0x00
0010f8  04000400          DCB      0x04,0x00,0x04,0x00
0010fc  08401020          DCB      0x08,0x40,0x10,0x20
001100  20107ff8          DCB      0x20,0x10,0x7f,0xf8
001104  20080008          DCB      0x20,0x08,0x00,0x08
001108  c9cf0200          DCB      0xc9,0xcf,0x02,0x00
00110c  02000200          DCB      0x02,0x00,0x02,0x00
001110  02000200          DCB      0x02,0x00,0x02,0x00
001114  020003f8          DCB      0x02,0x00,0x03,0xf8
001118  02000200          DCB      0x02,0x00,0x02,0x00
00111c  02000200          DCB      0x02,0x00,0x02,0x00
001120  02000200          DCB      0x02,0x00,0x02,0x00
001124  0200fffe          DCB      0x02,0x00,0xff,0xfe
001128  0000bcd2          DCB      0x00,0x00,0xbc,0xd2
00112c  02000100          DCB      0x02,0x00,0x01,0x00
001130  7ffe4002          DCB      0x7f,0xfe,0x40,0x02
001134  80047ffc          DCB      0x80,0x04,0x7f,0xfc
001138  02000d08          DCB      0x02,0x00,0x0d,0x08
00113c  719002a0          DCB      0x71,0x90,0x02,0xa0
001140  0cc071a0          DCB      0x0c,0xc0,0x71,0xa0
001144  06981886          DCB      0x06,0x98,0x18,0x86
001148  e2800100          DCB      0xe2,0x80,0x01,0x00
00114c  bed30000          DCB      0xbe,0xd3,0x00,0x00
001150  3ff82008          DCB      0x3f,0xf8,0x20,0x08
001154  20083ff8          DCB      0x20,0x08,0x3f,0xf8
001158  20802080          DCB      0x20,0x80,0x20,0x80
00115c  3ffe2080          DCB      0x3f,0xfe,0x20,0x80
001160  20802ff8          DCB      0x20,0x80,0x2f,0xf8
001164  28084808          DCB      0x28,0x08,0x48,0x08
001168  48088ff8          DCB      0x48,0x08,0x8f,0xf8
00116c  0808bfd8          DCB      0x08,0x08,0xbf,0xd8
001170  10401020          DCB      0x10,0x40,0x10,0x20
001174  102013fe          DCB      0x10,0x20,0x13,0xfe
001178  fa021494          DCB      0xfa,0x02,0x14,0x94
00117c  11081a04          DCB      0x11,0x08,0x1a,0x04
001180  3000d1fc          DCB      0x30,0x00,0xd1,0xfc
001184  10201020          DCB      0x10,0x20,0x10,0x20
001188  10201020          DCB      0x10,0x20,0x10,0x20
00118c  57fe2000          DCB      0x57,0xfe,0x20,0x00
001190  d6c60404          DCB      0xd6,0xc6,0x04,0x04
001194  24042404          DCB      0x24,0x04,0x24,0x04
001198  3fa44424          DCB      0x3f,0xa4,0x44,0x24
00119c  0424ffe4          DCB      0x04,0x24,0xff,0xe4
0011a0  04240424          DCB      0x04,0x24,0x04,0x24
0011a4  3fa424a4          DCB      0x3f,0xa4,0x24,0xa4
0011a8  24a42684          DCB      0x24,0xa4,0x26,0x84
0011ac  25040414          DCB      0x25,0x04,0x04,0x14
0011b0  0408c3fc          DCB      0x04,0x08,0xc3,0xfc
0011b4  01000100          DCB      0x01,0x00,0x01,0x00
0011b8  02800440          DCB      0x02,0x80,0x04,0x40
0011bc  082037d8          DCB      0x08,0x20,0x37,0xd8
0011c0  c0060000          DCB      0xc0,0x06,0x00,0x00
0011c4  3ef82288          DCB      0x3e,0xf8,0x22,0x88
0011c8  22882288          DCB      0x22,0x88,0x22,0x88
0011cc  3ea82290          DCB      0x3e,0xa8,0x22,0x90
0011d0  00800080          DCB      0x00,0x80,0x00,0x80
0011d4  c1ee0100          DCB      0xc1,0xee,0x01,0x00
0011d8  01000280          DCB      0x01,0x00,0x02,0x80
0011dc  04400a20          DCB      0x04,0x40,0x0a,0x20
0011e0  11102108          DCB      0x11,0x10,0x21,0x08
0011e4  c0061ff0          DCB      0xc0,0x06,0x1f,0xf0
0011e8  00100020          DCB      0x00,0x10,0x00,0x20
0011ec  04400280          DCB      0x04,0x40,0x02,0x80
0011f0  01000080          DCB      0x01,0x00,0x00,0x80
0011f4  0080c7f8          DCB      0x00,0x80,0xc7,0xf8
0011f8  00007ffc          DCB      0x00,0x00,0x7f,0xfc
0011fc  40004010          DCB      0x40,0x00,0x40,0x10
001200  44104220          DCB      0x44,0x10,0x42,0x20
001204  41404080          DCB      0x41,0x40,0x40,0x80
001208  41404220          DCB      0x41,0x40,0x42,0x20
00120c  44104810          DCB      0x44,0x10,0x48,0x10
001210  40004000          DCB      0x40,0x00,0x40,0x00
001214  7ffe0000          DCB      0x7f,0xfe,0x00,0x00
001218  d3f22014          DCB      0xd3,0xf2,0x20,0x14
00121c  20122010          DCB      0x20,0x12,0x20,0x10
001220  27fe2010          DCB      0x27,0xfe,0x20,0x10
001224  f81023d2          DCB      0xf8,0x10,0x23,0xd2
001228  22522252          DCB      0x22,0x52,0x22,0x52
00122c  225423d4          DCB      0x22,0x54,0x23,0xd4
001230  3808e0ea          DCB      0x38,0x08,0xe0,0xea
001234  471a0226          DCB      0x47,0x1a,0x02,0x26
001238  0042cafd          DCB      0x00,0x42,0xca,0xfd
00123c  08204920          DCB      0x08,0x20,0x49,0x20
001240  2a20083e          DCB      0x2a,0x20,0x08,0x3e
001244  ff442a44          DCB      0xff,0x44,0x2a,0x44
001248  494488a4          DCB      0x49,0x44,0x88,0xa4
00124c  1028fe28          DCB      0x10,0x28,0xfe,0x28
001250  22104210          DCB      0x22,0x10,0x42,0x10
001254  64281828          DCB      0x64,0x28,0x18,0x28
001258  3444c282          DCB      0x34,0x44,0xc2,0x82
00125c  bedd2000          DCB      0xbe,0xdd,0x20,0x00
001260  23fc2204          DCB      0x23,0xfc,0x22,0x04
001264  2204fbfc          DCB      0x22,0x04,0xfb,0xfc
001268  22202220          DCB      0x22,0x20,0x22,0x20
00126c  2bfe3220          DCB      0x2b,0xfe,0x32,0x20
001270  e22022fc          DCB      0xe2,0x20,0x22,0xfc
001274  22842284          DCB      0x22,0x84,0x22,0x84
001278  2484a4fc          DCB      0x24,0x84,0xa4,0xfc
00127c  4884cfd4          DCB      0x48,0x84,0xcf,0xd4
001280  00001ff0          DCB      0x00,0x00,0x1f,0xf0
001284  10101010          DCB      0x10,0x10,0x10,0x10
001288  1ff01010          DCB      0x1f,0xf0,0x10,0x10
00128c  10101ff0          DCB      0x10,0x10,0x1f,0xf0
001290  04404444          DCB      0x04,0x40,0x44,0x44
001294  24441448          DCB      0x24,0x44,0x14,0x48
001298  14500440          DCB      0x14,0x50,0x04,0x40
00129c  fffe0000          DCB      0xff,0xfe,0x00,0x00
0012a0  cabe0000          DCB      0xca,0xbe,0x00,0x00
0012a4  3ff80000          DCB      0x3f,0xf8,0x00,0x00
0012a8  00000000          DCB      0x00,0x00,0x00,0x00
0012ac  0000fffe          DCB      0x00,0x00,0xff,0xfe
0012b0  01000100          DCB      0x01,0x00,0x01,0x00
0012b4  11101108          DCB      0x11,0x10,0x11,0x08
0012b8  21044102          DCB      0x21,0x04,0x41,0x02
0012bc  81020500          DCB      0x81,0x02,0x05,0x00
0012c0  0200a1e6          DCB      0x02,0x00,0xa1,0xe6
0012c4  4000a740          DCB      0x40,0x00,0xa7,0x40
0012c8  48c01040          DCB      0x48,0xc0,0x10,0x40
0012cc  10001000          DCB      0x10,0x00,0x10,0x00
0012d0  10001020          DCB      0x10,0x00,0x10,0x20
0012d4  08400780          DCB      0x08,0x40,0x07,0x80
0012d8  00000000          DCB      0x00,0x00,0x00,0x00
                          %        8

;*** Start embedded assembler ***

#line 1 "..\\..\\..\\..\\User\\ThirdDrivers\\drv_gui.c"
	AREA ||.rev16_text||, CODE
	THUMB
	EXPORT |__asm___9_drv_gui_c_b9e5b2ae____REV16|
#line 459 "..\\..\\..\\..\\Libraries\\CMSIS\\Core\\Include\\cmsis_armcc.h"
|__asm___9_drv_gui_c_b9e5b2ae____REV16| PROC
#line 460

 rev16 r0, r0
 bx lr
	ENDP
	AREA ||.revsh_text||, CODE
	THUMB
	EXPORT |__asm___9_drv_gui_c_b9e5b2ae____REVSH|
#line 474
|__asm___9_drv_gui_c_b9e5b2ae____REVSH| PROC
#line 475

 revsh r0, r0
 bx lr
	ENDP
	AREA ||.rrx_text||, CODE
	THUMB
	EXPORT |__asm___9_drv_gui_c_b9e5b2ae____RRX|
#line 661
|__asm___9_drv_gui_c_b9e5b2ae____RRX| PROC
#line 662

 rrx r0, r0
 bx lr
	ENDP

;*** End   embedded assembler ***
