; generated by Component: ARM Compiler 5.06 update 6 (build 750) Tool: ArmCC [4d3637]
; commandline ArmCC [--c99 --list --split_sections --debug -c --asm --interleave -o.\eflash2sram\objects\lcd_tests.o --asm_dir=.\Eflash2Sram\Listings\ --list_dir=.\Eflash2Sram\Listings\ --depend=.\eflash2sram\objects\lcd_tests.d --cpu=Cortex-M3 --apcs=interwork -O0 --diag_suppress=9931 -I..\..\..\..\Libraries\CMSIS\DSP\Include -I..\..\..\..\Libraries\CMSIS\Core\Include -I..\..\..\..\Libraries\Device\Phoenix\include -I..\..\..\..\Libraries\Protocol\Modbus\include -I..\..\..\..\Libraries\Protocol\Modbus\port -I..\..\..\..\Libraries\Protocol\ -I..\..\..\..\User\LL -I..\..\..\..\Libraries\Driver\include -I..\..\..\..\Libraries\Driver\include\LL -I..\..\..\..\User\Hardware -I..\..\..\..\User\ThirdDrivers -I.\RTE\_Eflash2Sram -ID:\Tools\KIEIL\ARM\CMSIS\5.5.1\CMSIS\Core\Include -ID:\Tools\KIEIL\ARM\CMSIS\5.5.1\Device\ARM\ARMCM3\Include -D__MICROLIB -D__UVISION_VERSION=528 -D_RTE_ -DARMCM3 -DEFLASH2SRAM --omf_browse=.\eflash2sram\objects\lcd_tests.crf ..\..\..\..\User\LL\lcd_tests.c]
                          THUMB

                          AREA ||i.Test_LCD_Circle||, CODE, READONLY, ALIGN=2

                  Test_LCD_Circle PROC
;;;61     
;;;62     void Test_LCD_Circle(void)
000000  e92d43f8          PUSH     {r3-r9,lr}
;;;63     {
;;;64         u8 i = 0;
000004  2400              MOVS     r4,#0
;;;65     
;;;66         uint16_t x = 0, y = 8;
000006  2500              MOVS     r5,#0
000008  2608              MOVS     r6,#8
;;;67         LCD_Clear(WHITE);//清全屏
00000a  f64f70ff          MOV      r0,#0xffff
00000e  f7fffffe          BL       LCD_Clear
;;;68         POINT_COLOR = RED;  // 设置前景颜色
000012  f44f4078          MOV      r0,#0xf800
000016  4944              LDR      r1,|L1.296|
000018  8008              STRH     r0,[r1,#0]
;;;69         BACK_COLOR = YELLOW; // 设置背景颜色
00001a  f64f70e0          MOV      r0,#0xffe0
00001e  4943              LDR      r1,|L1.300|
000020  8008              STRH     r0,[r1,#0]
;;;70         LCD_ShowString(x, y, 16, "TEST: LCD Fill Circle...", 0);
000022  2000              MOVS     r0,#0
000024  a342              ADR      r3,|L1.304|
000026  2210              MOVS     r2,#0x10
000028  4631              MOV      r1,r6
00002a  9000              STR      r0,[sp,#0]
00002c  4628              MOV      r0,r5
00002e  f7fffffe          BL       LCD_ShowString
;;;71         delay_ms(1000);
000032  f44f707a          MOV      r0,#0x3e8
000036  f7fffffe          BL       delay_ms
;;;72         LCD_Clear(WHITE);//清全屏
00003a  f64f70ff          MOV      r0,#0xffff
00003e  f7fffffe          BL       LCD_Clear
;;;73     
;;;74         LCD_Fill(0, 20, lcddev.width, lcddev.height - 20, WHITE);
000042  f64f70ff          MOV      r0,#0xffff
000046  9000              STR      r0,[sp,#0]
000048  4840              LDR      r0,|L1.332|
00004a  8840              LDRH     r0,[r0,#2]  ; lcddev
00004c  3814              SUBS     r0,r0,#0x14
00004e  b283              UXTH     r3,r0
000050  483e              LDR      r0,|L1.332|
000052  8802              LDRH     r2,[r0,#0]  ; lcddev
000054  2114              MOVS     r1,#0x14
000056  2000              MOVS     r0,#0
000058  f7fffffe          BL       LCD_Fill
;;;75     
;;;76         for (i = 0; i < 5; i++) {
00005c  bf00              NOP      
00005e  e022              B        |L1.166|
                  |L1.96|
;;;77             LCD_DrawCircle(lcddev.width / 2 - 80 + (i * 25), lcddev.height / 2 - 50 + (i * 25), ColorTab[i], 30, 0);
000060  2000              MOVS     r0,#0
000062  4b3a              LDR      r3,|L1.332|
000064  9000              STR      r0,[sp,#0]
000066  885f              LDRH     r7,[r3,#2]  ; lcddev
000068  eb0773d7          ADD      r3,r7,r7,LSR #31
00006c  105b              ASRS     r3,r3,#1
00006e  3b32              SUBS     r3,r3,#0x32
000070  eb040cc4          ADD      r12,r4,r4,LSL #3
000074  eb0c1c04          ADD      r12,r12,r4,LSL #4
000078  eb03010c          ADD      r1,r3,r12
00007c  4b33              LDR      r3,|L1.332|
00007e  f8b38000          LDRH     r8,[r3,#0]  ; lcddev
000082  eb0873d8          ADD      r3,r8,r8,LSR #31
000086  105b              ASRS     r3,r3,#1
000088  3b50              SUBS     r3,r3,#0x50
00008a  eb040cc4          ADD      r12,r4,r4,LSL #3
00008e  eb0c1c04          ADD      r12,r12,r4,LSL #4
000092  eb03000c          ADD      r0,r3,r12
000096  4b2e              LDR      r3,|L1.336|
000098  f8332014          LDRH     r2,[r3,r4,LSL #1]
00009c  231e              MOVS     r3,#0x1e
00009e  f7fffffe          BL       LCD_DrawCircle
0000a2  1c60              ADDS     r0,r4,#1              ;76
0000a4  b2c4              UXTB     r4,r0                 ;76
                  |L1.166|
0000a6  2c05              CMP      r4,#5                 ;76
0000a8  dbda              BLT      |L1.96|
;;;78         }
;;;79     
;;;80         delay_ms(1500);
0000aa  f24050dc          MOV      r0,#0x5dc
0000ae  f7fffffe          BL       delay_ms
;;;81         LCD_Fill(0, 20, lcddev.width, lcddev.height - 20, WHITE);
0000b2  f64f70ff          MOV      r0,#0xffff
0000b6  9000              STR      r0,[sp,#0]
0000b8  4824              LDR      r0,|L1.332|
0000ba  8840              LDRH     r0,[r0,#2]  ; lcddev
0000bc  3814              SUBS     r0,r0,#0x14
0000be  b283              UXTH     r3,r0
0000c0  4822              LDR      r0,|L1.332|
0000c2  8802              LDRH     r2,[r0,#0]  ; lcddev
0000c4  2114              MOVS     r1,#0x14
0000c6  2000              MOVS     r0,#0
0000c8  f7fffffe          BL       LCD_Fill
;;;82     
;;;83         for (i = 0; i < 5; i++) {
0000cc  2400              MOVS     r4,#0
0000ce  e022              B        |L1.278|
                  |L1.208|
;;;84             LCD_DrawCircle(lcddev.width / 2 - 80 + (i * 25), lcddev.height / 2 - 50 + (i * 25), ColorTab[i], 30, 1);
0000d0  2001              MOVS     r0,#1
0000d2  4b1e              LDR      r3,|L1.332|
0000d4  9000              STR      r0,[sp,#0]
0000d6  885f              LDRH     r7,[r3,#2]  ; lcddev
0000d8  eb0773d7          ADD      r3,r7,r7,LSR #31
0000dc  105b              ASRS     r3,r3,#1
0000de  3b32              SUBS     r3,r3,#0x32
0000e0  eb040cc4          ADD      r12,r4,r4,LSL #3
0000e4  eb0c1c04          ADD      r12,r12,r4,LSL #4
0000e8  eb03010c          ADD      r1,r3,r12
0000ec  4b17              LDR      r3,|L1.332|
0000ee  f8b38000          LDRH     r8,[r3,#0]  ; lcddev
0000f2  eb0873d8          ADD      r3,r8,r8,LSR #31
0000f6  105b              ASRS     r3,r3,#1
0000f8  3b50              SUBS     r3,r3,#0x50
0000fa  eb040cc4          ADD      r12,r4,r4,LSL #3
0000fe  eb0c1c04          ADD      r12,r12,r4,LSL #4
000102  eb03000c          ADD      r0,r3,r12
000106  4b12              LDR      r3,|L1.336|
000108  f8332014          LDRH     r2,[r3,r4,LSL #1]
00010c  231e              MOVS     r3,#0x1e
00010e  f7fffffe          BL       LCD_DrawCircle
000112  1c60              ADDS     r0,r4,#1              ;83
000114  b2c4              UXTB     r4,r0                 ;83
                  |L1.278|
000116  2c05              CMP      r4,#5                 ;83
000118  dbda              BLT      |L1.208|
;;;85         }
;;;86     
;;;87         delay_ms(1500);
00011a  f24050dc          MOV      r0,#0x5dc
00011e  f7fffffe          BL       delay_ms
;;;88     }
000122  e8bd83f8          POP      {r3-r9,pc}
;;;89     
                          ENDP

000126  0000              DCW      0x0000
                  |L1.296|
                          DCD      POINT_COLOR
                  |L1.300|
                          DCD      BACK_COLOR
                  |L1.304|
000130  54455354          DCB      "TEST: LCD Fill Circle...",0
000134  3a204c43
000138  44204669
00013c  6c6c2043
000140  6972636c
000144  652e2e2e
000148  00      
000149  00                DCB      0
00014a  00                DCB      0
00014b  00                DCB      0
                  |L1.332|
                          DCD      lcddev
                  |L1.336|
                          DCD      ColorTab

                          AREA ||i.Test_LCD_ColorFill||, CODE, READONLY, ALIGN=2

                  Test_LCD_ColorFill PROC
;;;10     
;;;11     void Test_LCD_ColorFill(void)
000000  b5f8              PUSH     {r3-r7,lr}
;;;12     {
;;;13         uint16_t x = 0, y = 8;
000002  2500              MOVS     r5,#0
000004  2608              MOVS     r6,#8
;;;14         LCD_Clear(WHITE);//清全屏
000006  f64f70ff          MOV      r0,#0xffff
00000a  f7fffffe          BL       LCD_Clear
;;;15         POINT_COLOR = RED;  // 设置前景颜色
00000e  f44f4078          MOV      r0,#0xf800
000012  4916              LDR      r1,|L2.108|
000014  8008              STRH     r0,[r1,#0]
;;;16         BACK_COLOR = YELLOW; // 设置背景颜色
000016  f64f70e0          MOV      r0,#0xffe0
00001a  4915              LDR      r1,|L2.112|
00001c  8008              STRH     r0,[r1,#0]
;;;17         LCD_ShowString(x, y, 16, "TEST: LCD Color Fill...", 0);
00001e  2000              MOVS     r0,#0
000020  a314              ADR      r3,|L2.116|
000022  2210              MOVS     r2,#0x10
000024  4631              MOV      r1,r6
000026  9000              STR      r0,[sp,#0]
000028  4628              MOV      r0,r5
00002a  f7fffffe          BL       LCD_ShowString
;;;18         delay_ms(1000);
00002e  f44f707a          MOV      r0,#0x3e8
000032  f7fffffe          BL       delay_ms
;;;19     
;;;20         for (uint8_t icnt = 2; icnt > 0; icnt--) {
000036  2402              MOVS     r4,#2
000038  e014              B        |L2.100|
                  |L2.58|
;;;21             LCD_Clear(BLUE);
00003a  201f              MOVS     r0,#0x1f
00003c  f7fffffe          BL       LCD_Clear
;;;22             LCD_Clear(RED);
000040  f44f4078          MOV      r0,#0xf800
000044  f7fffffe          BL       LCD_Clear
;;;23             LCD_Clear(GREEN);
000048  f44f60fc          MOV      r0,#0x7e0
00004c  f7fffffe          BL       LCD_Clear
;;;24             LCD_Clear(YELLOW);
000050  f64f70e0          MOV      r0,#0xffe0
000054  f7fffffe          BL       LCD_Clear
;;;25             LCD_Clear(BRRED);
000058  f64f4007          MOV      r0,#0xfc07
00005c  f7fffffe          BL       LCD_Clear
000060  1e60              SUBS     r0,r4,#1              ;20
000062  b2c4              UXTB     r4,r0                 ;20
                  |L2.100|
000064  2c00              CMP      r4,#0                 ;20
000066  dce8              BGT      |L2.58|
;;;26         }
;;;27     }
000068  bdf8              POP      {r3-r7,pc}
;;;28     
                          ENDP

00006a  0000              DCW      0x0000
                  |L2.108|
                          DCD      POINT_COLOR
                  |L2.112|
                          DCD      BACK_COLOR
                  |L2.116|
000074  54455354          DCB      "TEST: LCD Color Fill...",0
000078  3a204c43
00007c  4420436f
000080  6c6f7220
000084  46696c6c
000088  2e2e2e00

                          AREA ||i.Test_LCD_FillRec||, CODE, READONLY, ALIGN=2

                  Test_LCD_FillRec PROC
;;;29     
;;;30     void Test_LCD_FillRec(void)
000000  e92d4ff8          PUSH     {r3-r11,lr}
;;;31     {
;;;32         u8 i = 0;
000004  2400              MOVS     r4,#0
;;;33     
;;;34         uint16_t x = 0, y = 8;
000006  2500              MOVS     r5,#0
000008  2608              MOVS     r6,#8
;;;35         LCD_Clear(WHITE);//清全屏
00000a  f64f70ff          MOV      r0,#0xffff
00000e  f7fffffe          BL       LCD_Clear
;;;36         POINT_COLOR = RED;  // 设置前景颜色
000012  f44f4078          MOV      r0,#0xf800
000016  496a              LDR      r1,|L3.448|
000018  8008              STRH     r0,[r1,#0]
;;;37         BACK_COLOR = YELLOW; // 设置背景颜色
00001a  f64f70e0          MOV      r0,#0xffe0
00001e  4969              LDR      r1,|L3.452|
000020  8008              STRH     r0,[r1,#0]
;;;38         LCD_ShowString(x, y, 16, "TEST: LCD Fill Rectangle...", 0);
000022  2000              MOVS     r0,#0
000024  a368              ADR      r3,|L3.456|
000026  2210              MOVS     r2,#0x10
000028  4631              MOV      r1,r6
00002a  9000              STR      r0,[sp,#0]
00002c  4628              MOV      r0,r5
00002e  f7fffffe          BL       LCD_ShowString
;;;39         delay_ms(1000);
000032  f44f707a          MOV      r0,#0x3e8
000036  f7fffffe          BL       delay_ms
;;;40         LCD_Clear(WHITE);//清全屏
00003a  f64f70ff          MOV      r0,#0xffff
00003e  f7fffffe          BL       LCD_Clear
;;;41     
;;;42         LCD_Fill(0, 20, lcddev.width, lcddev.height - 20, WHITE);
000042  f64f70ff          MOV      r0,#0xffff
000046  9000              STR      r0,[sp,#0]
000048  4866              LDR      r0,|L3.484|
00004a  8840              LDRH     r0,[r0,#2]  ; lcddev
00004c  3814              SUBS     r0,r0,#0x14
00004e  b283              UXTH     r3,r0
000050  4864              LDR      r0,|L3.484|
000052  8802              LDRH     r2,[r0,#0]  ; lcddev
000054  2114              MOVS     r1,#0x14
000056  2000              MOVS     r0,#0
000058  f7fffffe          BL       LCD_Fill
;;;43     
;;;44         for (i = 0; i < 5; i++) {
00005c  bf00              NOP      
00005e  e048              B        |L3.242|
                  |L3.96|
;;;45             POINT_COLOR = ColorTab[i];
000060  4861              LDR      r0,|L3.488|
000062  f8300014          LDRH     r0,[r0,r4,LSL #1]
000066  4956              LDR      r1,|L3.448|
000068  8008              STRH     r0,[r1,#0]
;;;46             LCD_DrawRectangle(lcddev.width / 2 - 80 + (i * 15), lcddev.height / 2 - 80 + (i * 15), lcddev.width / 2 - 80 + (i * 15) + 60,
00006a  f8dfc178          LDR      r12,|L3.484|
00006e  f8bc7002          LDRH     r7,[r12,#2]  ; lcddev
000072  eb077cd7          ADD      r12,r7,r7,LSR #31
000076  ea4f0c6c          ASR      r12,r12,#1
00007a  f1ac0c50          SUB      r12,r12,#0x50
00007e  ebc41b04          RSB      r11,r4,r4,LSL #4
000082  44dc              ADD      r12,r12,r11
000084  f10c0c3c          ADD      r12,r12,#0x3c
000088  fa1ff38c          UXTH     r3,r12
00008c  f8dfc154          LDR      r12,|L3.484|
000090  f8bc8000          LDRH     r8,[r12,#0]  ; lcddev
000094  eb087cd8          ADD      r12,r8,r8,LSR #31
000098  ea4f0c6c          ASR      r12,r12,#1
00009c  f1ac0c50          SUB      r12,r12,#0x50
0000a0  ebc41b04          RSB      r11,r4,r4,LSL #4
0000a4  44dc              ADD      r12,r12,r11
0000a6  f10c0c3c          ADD      r12,r12,#0x3c
0000aa  fa1ff28c          UXTH     r2,r12
0000ae  f8dfc134          LDR      r12,|L3.484|
0000b2  f8bc9002          LDRH     r9,[r12,#2]  ; lcddev
0000b6  eb097cd9          ADD      r12,r9,r9,LSR #31
0000ba  ea4f0c6c          ASR      r12,r12,#1
0000be  f1ac0c50          SUB      r12,r12,#0x50
0000c2  ebc41b04          RSB      r11,r4,r4,LSL #4
0000c6  44dc              ADD      r12,r12,r11
0000c8  fa1ff18c          UXTH     r1,r12
0000cc  f8dfc114          LDR      r12,|L3.484|
0000d0  f8bca000          LDRH     r10,[r12,#0]  ; lcddev
0000d4  eb0a7cda          ADD      r12,r10,r10,LSR #31
0000d8  ea4f0c6c          ASR      r12,r12,#1
0000dc  f1ac0c50          SUB      r12,r12,#0x50
0000e0  ebc41b04          RSB      r11,r4,r4,LSL #4
0000e4  44dc              ADD      r12,r12,r11
0000e6  fa1ff08c          UXTH     r0,r12
0000ea  f7fffffe          BL       LCD_DrawRectangle
0000ee  1c60              ADDS     r0,r4,#1              ;44
0000f0  b2c4              UXTB     r4,r0                 ;44
                  |L3.242|
0000f2  2c05              CMP      r4,#5                 ;44
0000f4  dbb4              BLT      |L3.96|
;;;47                               lcddev.height / 2 - 80 + (i * 15) + 60);
;;;48         }
;;;49     
;;;50         delay_ms(1500);
0000f6  f24050dc          MOV      r0,#0x5dc
0000fa  f7fffffe          BL       delay_ms
;;;51         LCD_Fill(0, 20, lcddev.width, lcddev.height - 20, WHITE);
0000fe  f64f70ff          MOV      r0,#0xffff
000102  9000              STR      r0,[sp,#0]
000104  4837              LDR      r0,|L3.484|
000106  8840              LDRH     r0,[r0,#2]  ; lcddev
000108  3814              SUBS     r0,r0,#0x14
00010a  b283              UXTH     r3,r0
00010c  4835              LDR      r0,|L3.484|
00010e  8802              LDRH     r2,[r0,#0]  ; lcddev
000110  2114              MOVS     r1,#0x14
000112  2000              MOVS     r0,#0
000114  f7fffffe          BL       LCD_Fill
;;;52     
;;;53         for (i = 0; i < 5; i++) {
000118  2400              MOVS     r4,#0
00011a  e048              B        |L3.430|
                  |L3.284|
;;;54             POINT_COLOR = ColorTab[i];
00011c  4832              LDR      r0,|L3.488|
00011e  f8300014          LDRH     r0,[r0,r4,LSL #1]
000122  4927              LDR      r1,|L3.448|
000124  8008              STRH     r0,[r1,#0]
;;;55             LCD_DrawFillRectangle(lcddev.width / 2 - 80 + (i * 15), lcddev.height / 2 - 80 + (i * 15), lcddev.width / 2 - 80 + (i * 15) + 60,
000126  f8dfc0bc          LDR      r12,|L3.484|
00012a  f8bc7002          LDRH     r7,[r12,#2]  ; lcddev
00012e  eb077cd7          ADD      r12,r7,r7,LSR #31
000132  ea4f0c6c          ASR      r12,r12,#1
000136  f1ac0c50          SUB      r12,r12,#0x50
00013a  ebc41b04          RSB      r11,r4,r4,LSL #4
00013e  44dc              ADD      r12,r12,r11
000140  f10c0c3c          ADD      r12,r12,#0x3c
000144  fa1ff38c          UXTH     r3,r12
000148  f8dfc098          LDR      r12,|L3.484|
00014c  f8bc8000          LDRH     r8,[r12,#0]  ; lcddev
000150  eb087cd8          ADD      r12,r8,r8,LSR #31
000154  ea4f0c6c          ASR      r12,r12,#1
000158  f1ac0c50          SUB      r12,r12,#0x50
00015c  ebc41b04          RSB      r11,r4,r4,LSL #4
000160  44dc              ADD      r12,r12,r11
000162  f10c0c3c          ADD      r12,r12,#0x3c
000166  fa1ff28c          UXTH     r2,r12
00016a  f8dfc078          LDR      r12,|L3.484|
00016e  f8bc9002          LDRH     r9,[r12,#2]  ; lcddev
000172  eb097cd9          ADD      r12,r9,r9,LSR #31
000176  ea4f0c6c          ASR      r12,r12,#1
00017a  f1ac0c50          SUB      r12,r12,#0x50
00017e  ebc41b04          RSB      r11,r4,r4,LSL #4
000182  44dc              ADD      r12,r12,r11
000184  fa1ff18c          UXTH     r1,r12
000188  f8dfc058          LDR      r12,|L3.484|
00018c  f8bca000          LDRH     r10,[r12,#0]  ; lcddev
000190  eb0a7cda          ADD      r12,r10,r10,LSR #31
000194  ea4f0c6c          ASR      r12,r12,#1
000198  f1ac0c50          SUB      r12,r12,#0x50
00019c  ebc41b04          RSB      r11,r4,r4,LSL #4
0001a0  44dc              ADD      r12,r12,r11
0001a2  fa1ff08c          UXTH     r0,r12
0001a6  f7fffffe          BL       LCD_DrawFillRectangle
0001aa  1c60              ADDS     r0,r4,#1              ;53
0001ac  b2c4              UXTB     r4,r0                 ;53
                  |L3.430|
0001ae  2c05              CMP      r4,#5                 ;53
0001b0  dbb4              BLT      |L3.284|
;;;56                                   lcddev.height / 2 - 80 + (i * 15) + 60);
;;;57         }
;;;58     
;;;59         delay_ms(1500);
0001b2  f24050dc          MOV      r0,#0x5dc
0001b6  f7fffffe          BL       delay_ms
;;;60     }
0001ba  e8bd8ff8          POP      {r3-r11,pc}
;;;61     
                          ENDP

0001be  0000              DCW      0x0000
                  |L3.448|
                          DCD      POINT_COLOR
                  |L3.452|
                          DCD      BACK_COLOR
                  |L3.456|
0001c8  54455354          DCB      "TEST: LCD Fill Rectangle...",0
0001cc  3a204c43
0001d0  44204669
0001d4  6c6c2052
0001d8  65637461
0001dc  6e676c65
0001e0  2e2e2e00
                  |L3.484|
                          DCD      lcddev
                  |L3.488|
                          DCD      ColorTab

                          AREA ||i.Test_LCD_Pic||, CODE, READONLY, ALIGN=2

                  Test_LCD_Pic PROC
;;;146    
;;;147    void Test_LCD_Pic(void)
000000  b538              PUSH     {r3-r5,lr}
;;;148    {
;;;149        uint16_t x = 0, y = 8;
000002  2400              MOVS     r4,#0
000004  2508              MOVS     r5,#8
;;;150        LCD_Clear(WHITE);//清全屏
000006  f64f70ff          MOV      r0,#0xffff
00000a  f7fffffe          BL       LCD_Clear
;;;151        POINT_COLOR = RED;  // 设置前景颜色
00000e  f44f4078          MOV      r0,#0xf800
000012  4915              LDR      r1,|L4.104|
000014  8008              STRH     r0,[r1,#0]
;;;152        BACK_COLOR = YELLOW; // 设置背景颜色
000016  f64f70e0          MOV      r0,#0xffe0
00001a  4914              LDR      r1,|L4.108|
00001c  8008              STRH     r0,[r1,#0]
;;;153        LCD_ShowString(x, y, 16, "TEST: LCD Pic...", 0);
00001e  2000              MOVS     r0,#0
000020  a313              ADR      r3,|L4.112|
000022  2210              MOVS     r2,#0x10
000024  4629              MOV      r1,r5
000026  9000              STR      r0,[sp,#0]
000028  4620              MOV      r0,r4
00002a  f7fffffe          BL       LCD_ShowString
;;;154        delay_ms(1000);
00002e  f44f707a          MOV      r0,#0x3e8
000032  f7fffffe          BL       delay_ms
;;;155        LCD_Clear(WHITE);//清全屏
000036  f64f70ff          MOV      r0,#0xffff
00003a  f7fffffe          BL       LCD_Clear
;;;156    
;;;157        LCD_Draw16BitBMP(30, 64, gImage_qq);
00003e  4a11              LDR      r2,|L4.132|
000040  2140              MOVS     r1,#0x40
000042  201e              MOVS     r0,#0x1e
000044  f7fffffe          BL       LCD_Draw16BitBMP
;;;158        LCD_Draw16BitBMP(90, 64, gImage_qq);
000048  4a0e              LDR      r2,|L4.132|
00004a  2140              MOVS     r1,#0x40
00004c  205a              MOVS     r0,#0x5a
00004e  f7fffffe          BL       LCD_Draw16BitBMP
;;;159        LCD_Draw16BitBMP(150, 64, gImage_qq);
000052  4a0c              LDR      r2,|L4.132|
000054  2140              MOVS     r1,#0x40
000056  2096              MOVS     r0,#0x96
000058  f7fffffe          BL       LCD_Draw16BitBMP
;;;160        delay_ms(1200);
00005c  f44f6096          MOV      r0,#0x4b0
000060  f7fffffe          BL       delay_ms
;;;161    }
000064  bd38              POP      {r3-r5,pc}
;;;162    
                          ENDP

000066  0000              DCW      0x0000
                  |L4.104|
                          DCD      POINT_COLOR
                  |L4.108|
                          DCD      BACK_COLOR
                  |L4.112|
000070  54455354          DCB      "TEST: LCD Pic...",0
000074  3a204c43
000078  44205069
00007c  632e2e2e
000080  00      
000081  00                DCB      0
000082  00                DCB      0
000083  00                DCB      0
                  |L4.132|
                          DCD      gImage_qq

                          AREA ||i.Test_LCD_RotateDirection||, CODE, READONLY, ALIGN=2

                  Test_LCD_RotateDirection PROC
;;;121    
;;;122    void Test_LCD_RotateDirection(void)
000000  b570              PUSH     {r4-r6,lr}
;;;123    {
000002  b086              SUB      sp,sp,#0x18
;;;124        u8 i = 0;
000004  2400              MOVS     r4,#0
;;;125        u8 *Direction[4] = {"Rotation:0", "Rotation:90", "Rotation:180", "Rotation:270"};
000006  4b25              LDR      r3,|L5.156|
000008  cb0f              LDM      r3,{r0-r3}
00000a  ad02              ADD      r5,sp,#8
00000c  c50f              STM      r5!,{r0-r3}
;;;126    
;;;127        uint16_t x = 0, y = 8;
00000e  2500              MOVS     r5,#0
000010  2608              MOVS     r6,#8
;;;128        LCD_Clear(WHITE);//清全屏
000012  f64f70ff          MOV      r0,#0xffff
000016  f7fffffe          BL       LCD_Clear
;;;129        POINT_COLOR = RED;  // 设置前景颜色
00001a  f44f4078          MOV      r0,#0xf800
00001e  4920              LDR      r1,|L5.160|
000020  8008              STRH     r0,[r1,#0]
;;;130        BACK_COLOR = YELLOW; // 设置背景颜色
000022  f64f70e0          MOV      r0,#0xffe0
000026  491f              LDR      r1,|L5.164|
000028  8008              STRH     r0,[r1,#0]
;;;131        LCD_ShowString(x, y, 16, "TEST: LCD Direction Rotate...", 0);
00002a  2000              MOVS     r0,#0
00002c  a31e              ADR      r3,|L5.168|
00002e  2210              MOVS     r2,#0x10
000030  4631              MOV      r1,r6
000032  9000              STR      r0,[sp,#0]
000034  4628              MOV      r0,r5
000036  f7fffffe          BL       LCD_ShowString
;;;132        delay_ms(1000);
00003a  f44f707a          MOV      r0,#0x3e8
00003e  f7fffffe          BL       delay_ms
;;;133    
;;;134        for (i = 0; i < 4; i++) {
000042  bf00              NOP      
000044  e022              B        |L5.140|
                  |L5.70|
;;;135            LCD_Clear(WHITE);//清全屏
000046  f64f70ff          MOV      r0,#0xffff
00004a  f7fffffe          BL       LCD_Clear
;;;136            LCD_direction(i);
00004e  4620              MOV      r0,r4
000050  f7fffffe          BL       LCD_direction
;;;137            POINT_COLOR = BLUE;  // 设置前景颜色
000054  201f              MOVS     r0,#0x1f
000056  4912              LDR      r1,|L5.160|
000058  8008              STRH     r0,[r1,#0]
;;;138            BACK_COLOR = YELLOW; // 设置背景颜色
00005a  f64f70e0          MOV      r0,#0xffe0
00005e  4911              LDR      r1,|L5.164|
000060  8008              STRH     r0,[r1,#0]
;;;139            LCD_ShowString(20, 30, 16, Direction[i], 0);
000062  2000              MOVS     r0,#0
000064  9000              STR      r0,[sp,#0]
000066  a802              ADD      r0,sp,#8
000068  f8503024          LDR      r3,[r0,r4,LSL #2]
00006c  2210              MOVS     r2,#0x10
00006e  211e              MOVS     r1,#0x1e
000070  2014              MOVS     r0,#0x14
000072  f7fffffe          BL       LCD_ShowString
;;;140            LCD_Draw16BitBMP(30, 50, gImage_qq);
000076  4a14              LDR      r2,|L5.200|
000078  2132              MOVS     r1,#0x32
00007a  201e              MOVS     r0,#0x1e
00007c  f7fffffe          BL       LCD_Draw16BitBMP
;;;141            delay_ms(2000);
000080  f44f60fa          MOV      r0,#0x7d0
000084  f7fffffe          BL       delay_ms
000088  1c60              ADDS     r0,r4,#1              ;134
00008a  b2c4              UXTB     r4,r0                 ;134
                  |L5.140|
00008c  2c04              CMP      r4,#4                 ;134
00008e  dbda              BLT      |L5.70|
;;;142        }
;;;143    
;;;144        LCD_direction(USE_HORIZONTAL);
000090  2000              MOVS     r0,#0
000092  f7fffffe          BL       LCD_direction
;;;145    }
000096  b006              ADD      sp,sp,#0x18
000098  bd70              POP      {r4-r6,pc}
;;;146    
                          ENDP

00009a  0000              DCW      0x0000
                  |L5.156|
                          DCD      ||.constdata||+0xc80
                  |L5.160|
                          DCD      POINT_COLOR
                  |L5.164|
                          DCD      BACK_COLOR
                  |L5.168|
0000a8  54455354          DCB      "TEST: LCD Direction Rotate...",0
0000ac  3a204c43
0000b0  44204469
0000b4  72656374
0000b8  696f6e20
0000bc  526f7461
0000c0  74652e2e
0000c4  2e00    
0000c6  00                DCB      0
0000c7  00                DCB      0
                  |L5.200|
                          DCD      gImage_qq

                          AREA ||i.Test_LCD_Triangle||, CODE, READONLY, ALIGN=2

                  Test_LCD_Triangle PROC
;;;89     
;;;90     void Test_LCD_Triangle(void)
000000  e92d4ffe          PUSH     {r1-r11,lr}
;;;91     {
;;;92         u8 i = 0;
000004  2400              MOVS     r4,#0
;;;93     
;;;94         uint16_t x = 0, y = 8;
000006  46a3              MOV      r11,r4
000008  2008              MOVS     r0,#8
00000a  9002              STR      r0,[sp,#8]
;;;95         LCD_Clear(WHITE);//清全屏
00000c  f64f70ff          MOV      r0,#0xffff
000010  f7fffffe          BL       LCD_Clear
;;;96         POINT_COLOR = RED;  // 设置前景颜色
000014  f44f4078          MOV      r0,#0xf800
000018  497e              LDR      r1,|L6.532|
00001a  8008              STRH     r0,[r1,#0]
;;;97         BACK_COLOR = YELLOW; // 设置背景颜色
00001c  f64f70e0          MOV      r0,#0xffe0
000020  497d              LDR      r1,|L6.536|
000022  8008              STRH     r0,[r1,#0]
;;;98         LCD_ShowString(x, y, 16, "TEST: LCD Fill Triangle...", 0);
000024  2000              MOVS     r0,#0
000026  a37d              ADR      r3,|L6.540|
000028  2210              MOVS     r2,#0x10
00002a  9000              STR      r0,[sp,#0]
00002c  4658              MOV      r0,r11
00002e  9902              LDR      r1,[sp,#8]
000030  f7fffffe          BL       LCD_ShowString
;;;99         delay_ms(1000);
000034  f44f707a          MOV      r0,#0x3e8
000038  f7fffffe          BL       delay_ms
;;;100        LCD_Clear(WHITE);//清全屏
00003c  f64f70ff          MOV      r0,#0xffff
000040  f7fffffe          BL       LCD_Clear
;;;101    
;;;102        LCD_Fill(0, 20, lcddev.width, lcddev.height - 20, WHITE);
000044  f64f70ff          MOV      r0,#0xffff
000048  9000              STR      r0,[sp,#0]
00004a  487b              LDR      r0,|L6.568|
00004c  8840              LDRH     r0,[r0,#2]  ; lcddev
00004e  3814              SUBS     r0,r0,#0x14
000050  b283              UXTH     r3,r0
000052  4879              LDR      r0,|L6.568|
000054  8802              LDRH     r2,[r0,#0]  ; lcddev
000056  2114              MOVS     r1,#0x14
000058  2000              MOVS     r0,#0
00005a  f7fffffe          BL       LCD_Fill
;;;103    
;;;104        for (i = 0; i < 5; i++) {
00005e  bf00              NOP      
000060  e05d              B        |L6.286|
                  |L6.98|
;;;105            POINT_COLOR = ColorTab[i];
000062  4876              LDR      r0,|L6.572|
000064  f8300014          LDRH     r0,[r0,r4,LSL #1]
000068  496a              LDR      r1,|L6.532|
00006a  8008              STRH     r0,[r1,#0]
;;;106            Draw_Triangel(lcddev.width / 2 - 80 + (i * 20), lcddev.height / 2 - 20 + (i * 15), lcddev.width / 2 - 50 - 1 + (i * 20),
00006c  4872              LDR      r0,|L6.568|
00006e  8845              LDRH     r5,[r0,#2]  ; lcddev
000070  eb0570d5          ADD      r0,r5,r5,LSR #31
000074  1040              ASRS     r0,r0,#1
000076  3814              SUBS     r0,r0,#0x14
000078  ebc41104          RSB      r1,r4,r4,LSL #4
00007c  4408              ADD      r0,r0,r1
00007e  b281              UXTH     r1,r0
000080  486d              LDR      r0,|L6.568|
000082  8806              LDRH     r6,[r0,#0]  ; lcddev
000084  eb0670d6          ADD      r0,r6,r6,LSR #31
000088  1040              ASRS     r0,r0,#1
00008a  3815              SUBS     r0,r0,#0x15
00008c  eb040284          ADD      r2,r4,r4,LSL #2
000090  eb000082          ADD      r0,r0,r2,LSL #2
000094  b280              UXTH     r0,r0
000096  f8dfc1a0          LDR      r12,|L6.568|
00009a  e9cd0100          STRD     r0,r1,[sp,#0]
00009e  f8bc7002          LDRH     r7,[r12,#2]  ; lcddev
0000a2  eb077cd7          ADD      r12,r7,r7,LSR #31
0000a6  ea4f0c6c          ASR      r12,r12,#1
0000aa  f1ac0c49          SUB      r12,r12,#0x49
0000ae  ebc41e04          RSB      lr,r4,r4,LSL #4
0000b2  44f4              ADD      r12,r12,lr
0000b4  fa1ff38c          UXTH     r3,r12
0000b8  f8dfc17c          LDR      r12,|L6.568|
0000bc  f8bc8000          LDRH     r8,[r12,#0]  ; lcddev
0000c0  eb087cd8          ADD      r12,r8,r8,LSR #31
0000c4  ea4f0c6c          ASR      r12,r12,#1
0000c8  f1ac0c33          SUB      r12,r12,#0x33
0000cc  eb040e84          ADD      lr,r4,r4,LSL #2
0000d0  eb0c0c8e          ADD      r12,r12,lr,LSL #2
0000d4  fa1ff28c          UXTH     r2,r12
0000d8  f8dfc15c          LDR      r12,|L6.568|
0000dc  f8bc9002          LDRH     r9,[r12,#2]  ; lcddev
0000e0  eb097cd9          ADD      r12,r9,r9,LSR #31
0000e4  ea4f0c6c          ASR      r12,r12,#1
0000e8  f1ac0c14          SUB      r12,r12,#0x14
0000ec  ebc41e04          RSB      lr,r4,r4,LSL #4
0000f0  44f4              ADD      r12,r12,lr
0000f2  fa1ff18c          UXTH     r1,r12
0000f6  f8dfc140          LDR      r12,|L6.568|
0000fa  f8bca000          LDRH     r10,[r12,#0]  ; lcddev
0000fe  eb0a7cda          ADD      r12,r10,r10,LSR #31
000102  ea4f0c6c          ASR      r12,r12,#1
000106  f1ac0c50          SUB      r12,r12,#0x50
00010a  eb040e84          ADD      lr,r4,r4,LSL #2
00010e  eb0c0c8e          ADD      r12,r12,lr,LSL #2
000112  fa1ff08c          UXTH     r0,r12
000116  f7fffffe          BL       Draw_Triangel
00011a  1c60              ADDS     r0,r4,#1              ;104
00011c  b2c4              UXTB     r4,r0                 ;104
                  |L6.286|
00011e  2c05              CMP      r4,#5                 ;104
000120  db9f              BLT      |L6.98|
;;;107                          lcddev.height / 2 - 20 - 52 - 1 + (i * 15), lcddev.width / 2 - 20 - 1 + (i * 20), lcddev.height / 2 - 20 + (i * 15));
;;;108        }
;;;109    
;;;110        delay_ms(1500);
000122  f24050dc          MOV      r0,#0x5dc
000126  f7fffffe          BL       delay_ms
;;;111        LCD_Fill(0, 20, lcddev.width, lcddev.height - 20, WHITE);
00012a  f64f70ff          MOV      r0,#0xffff
00012e  9000              STR      r0,[sp,#0]
000130  4841              LDR      r0,|L6.568|
000132  8840              LDRH     r0,[r0,#2]  ; lcddev
000134  3814              SUBS     r0,r0,#0x14
000136  b283              UXTH     r3,r0
000138  483f              LDR      r0,|L6.568|
00013a  8802              LDRH     r2,[r0,#0]  ; lcddev
00013c  2114              MOVS     r1,#0x14
00013e  2000              MOVS     r0,#0
000140  f7fffffe          BL       LCD_Fill
;;;112    
;;;113        for (i = 0; i < 5; i++) {
000144  2400              MOVS     r4,#0
000146  e05d              B        |L6.516|
                  |L6.328|
;;;114            POINT_COLOR = ColorTab[i];
000148  483c              LDR      r0,|L6.572|
00014a  f8300014          LDRH     r0,[r0,r4,LSL #1]
00014e  4931              LDR      r1,|L6.532|
000150  8008              STRH     r0,[r1,#0]
;;;115            Fill_Triangel(lcddev.width / 2 - 80 + (i * 20), lcddev.height / 2 - 20 + (i * 15), lcddev.width / 2 - 50 - 1 + (i * 20),
000152  4839              LDR      r0,|L6.568|
000154  8845              LDRH     r5,[r0,#2]  ; lcddev
000156  eb0570d5          ADD      r0,r5,r5,LSR #31
00015a  1040              ASRS     r0,r0,#1
00015c  3814              SUBS     r0,r0,#0x14
00015e  ebc41104          RSB      r1,r4,r4,LSL #4
000162  4408              ADD      r0,r0,r1
000164  b281              UXTH     r1,r0
000166  4834              LDR      r0,|L6.568|
000168  8806              LDRH     r6,[r0,#0]  ; lcddev
00016a  eb0670d6          ADD      r0,r6,r6,LSR #31
00016e  1040              ASRS     r0,r0,#1
000170  3815              SUBS     r0,r0,#0x15
000172  eb040284          ADD      r2,r4,r4,LSL #2
000176  eb000082          ADD      r0,r0,r2,LSL #2
00017a  b280              UXTH     r0,r0
00017c  f8dfc0b8          LDR      r12,|L6.568|
000180  e9cd0100          STRD     r0,r1,[sp,#0]
000184  f8bc7002          LDRH     r7,[r12,#2]  ; lcddev
000188  eb077cd7          ADD      r12,r7,r7,LSR #31
00018c  ea4f0c6c          ASR      r12,r12,#1
000190  f1ac0c49          SUB      r12,r12,#0x49
000194  ebc41e04          RSB      lr,r4,r4,LSL #4
000198  44f4              ADD      r12,r12,lr
00019a  fa1ff38c          UXTH     r3,r12
00019e  f8dfc098          LDR      r12,|L6.568|
0001a2  f8bc8000          LDRH     r8,[r12,#0]  ; lcddev
0001a6  eb087cd8          ADD      r12,r8,r8,LSR #31
0001aa  ea4f0c6c          ASR      r12,r12,#1
0001ae  f1ac0c33          SUB      r12,r12,#0x33
0001b2  eb040e84          ADD      lr,r4,r4,LSL #2
0001b6  eb0c0c8e          ADD      r12,r12,lr,LSL #2
0001ba  fa1ff28c          UXTH     r2,r12
0001be  f8dfc078          LDR      r12,|L6.568|
0001c2  f8bc9002          LDRH     r9,[r12,#2]  ; lcddev
0001c6  eb097cd9          ADD      r12,r9,r9,LSR #31
0001ca  ea4f0c6c          ASR      r12,r12,#1
0001ce  f1ac0c14          SUB      r12,r12,#0x14
0001d2  ebc41e04          RSB      lr,r4,r4,LSL #4
0001d6  44f4              ADD      r12,r12,lr
0001d8  fa1ff18c          UXTH     r1,r12
0001dc  f8dfc058          LDR      r12,|L6.568|
0001e0  f8bca000          LDRH     r10,[r12,#0]  ; lcddev
0001e4  eb0a7cda          ADD      r12,r10,r10,LSR #31
0001e8  ea4f0c6c          ASR      r12,r12,#1
0001ec  f1ac0c50          SUB      r12,r12,#0x50
0001f0  eb040e84          ADD      lr,r4,r4,LSL #2
0001f4  eb0c0c8e          ADD      r12,r12,lr,LSL #2
0001f8  fa1ff08c          UXTH     r0,r12
0001fc  f7fffffe          BL       Fill_Triangel
000200  1c60              ADDS     r0,r4,#1              ;113
000202  b2c4              UXTB     r4,r0                 ;113
                  |L6.516|
000204  2c05              CMP      r4,#5                 ;113
000206  db9f              BLT      |L6.328|
;;;116                          lcddev.height / 2 - 20 - 52 - 1 + (i * 15), lcddev.width / 2 - 20 - 1 + (i * 20), lcddev.height / 2 - 20 + (i * 15));
;;;117        }
;;;118    
;;;119        delay_ms(1500);
000208  f24050dc          MOV      r0,#0x5dc
00020c  f7fffffe          BL       delay_ms
;;;120    }
000210  e8bd8ffe          POP      {r1-r11,pc}
;;;121    
                          ENDP

                  |L6.532|
                          DCD      POINT_COLOR
                  |L6.536|
                          DCD      BACK_COLOR
                  |L6.540|
00021c  54455354          DCB      "TEST: LCD Fill Triangle...",0
000220  3a204c43
000224  44204669
000228  6c6c2054
00022c  7269616e
000230  676c652e
000234  2e2e00  
000237  00                DCB      0
                  |L6.568|
                          DCD      lcddev
                  |L6.572|
                          DCD      ColorTab

                          AREA ||i.Test_Touch_Draw||, CODE, READONLY, ALIGN=2

                  Test_Touch_Draw PROC
;;;162    
;;;163    void Test_Touch_Draw(void)
000000  b508              PUSH     {r3,lr}
;;;164    {
;;;165        uint16_t x = 0, y = 8;
000002  2500              MOVS     r5,#0
000004  2608              MOVS     r6,#8
;;;166        u16 j = 0;
000006  2400              MOVS     r4,#0
;;;167        u16 colorTemp = RED;
000008  f44f4778          MOV      r7,#0xf800
;;;168    
;;;169        LCD_Clear(WHITE);//清全屏
00000c  f64f70ff          MOV      r0,#0xffff
000010  f7fffffe          BL       LCD_Clear
;;;170        POINT_COLOR = RED;  // 设置前景颜色
000014  4638              MOV      r0,r7
000016  4977              LDR      r1,|L7.500|
000018  8008              STRH     r0,[r1,#0]
;;;171        BACK_COLOR = YELLOW; // 设置背景颜色
00001a  f64f70e0          MOV      r0,#0xffe0
00001e  4976              LDR      r1,|L7.504|
000020  8008              STRH     r0,[r1,#0]
;;;172        LCD_ShowString(x, y, 16, "TEST: Touch test...", 0);
000022  2000              MOVS     r0,#0
000024  a375              ADR      r3,|L7.508|
000026  2210              MOVS     r2,#0x10
000028  4631              MOV      r1,r6
00002a  9000              STR      r0,[sp,#0]
00002c  4628              MOV      r0,r5
00002e  f7fffffe          BL       LCD_ShowString
;;;173        delay_ms(1000);
000032  f44f707a          MOV      r0,#0x3e8
000036  f7fffffe          BL       delay_ms
;;;174        LCD_Clear(WHITE);//清全屏
00003a  f64f70ff          MOV      r0,#0xffff
00003e  f7fffffe          BL       LCD_Clear
;;;175        
;;;176        Drv_Touch_Init();
000042  f7fffffe          BL       Drv_Touch_Init
;;;177    
;;;178        LCD_Clear(WHITE);//清全屏
000046  f64f70ff          MOV      r0,#0xffff
00004a  f7fffffe          BL       LCD_Clear
;;;179        LCD_Fill(0, 0, lcddev.width, 20, BLUE);
00004e  201f              MOVS     r0,#0x1f
000050  9000              STR      r0,[sp,#0]
000052  486f              LDR      r0,|L7.528|
000054  8802              LDRH     r2,[r0,#0]  ; lcddev
000056  2314              MOVS     r3,#0x14
000058  2100              MOVS     r1,#0
00005a  4608              MOV      r0,r1
00005c  f7fffffe          BL       LCD_Fill
;;;180        LCD_Fill(0, lcddev.height - 20, lcddev.width, lcddev.height, BLUE);
000060  201f              MOVS     r0,#0x1f
000062  9000              STR      r0,[sp,#0]
000064  486a              LDR      r0,|L7.528|
000066  8843              LDRH     r3,[r0,#2]  ; lcddev
000068  8802              LDRH     r2,[r0,#0]  ; lcddev
00006a  8840              LDRH     r0,[r0,#2]  ; lcddev
00006c  3814              SUBS     r0,r0,#0x14
00006e  b281              UXTH     r1,r0
000070  2000              MOVS     r0,#0
000072  f7fffffe          BL       LCD_Fill
;;;181        POINT_COLOR = RED;
000076  4638              MOV      r0,r7
000078  495e              LDR      r1,|L7.500|
00007a  8008              STRH     r0,[r1,#0]
;;;182        LCD_ShowString(lcddev.width - 24, 0, 16, "RST", 1); //显示清屏区域
00007c  2001              MOVS     r0,#1
00007e  4964              LDR      r1,|L7.528|
000080  9000              STR      r0,[sp,#0]
000082  8809              LDRH     r1,[r1,#0]  ; lcddev
000084  3918              SUBS     r1,r1,#0x18
000086  b288              UXTH     r0,r1
000088  a362              ADR      r3,|L7.532|
00008a  2210              MOVS     r2,#0x10
00008c  2100              MOVS     r1,#0
00008e  f7fffffe          BL       LCD_ShowString
;;;183        LCD_Fill(lcddev.width - 52, 2, lcddev.width - 50 + 20, 18, RED);
000092  4638              MOV      r0,r7
000094  495e              LDR      r1,|L7.528|
000096  9000              STR      r0,[sp,#0]
000098  8809              LDRH     r1,[r1,#0]  ; lcddev
00009a  391e              SUBS     r1,r1,#0x1e
00009c  b28a              UXTH     r2,r1
00009e  495c              LDR      r1,|L7.528|
0000a0  8809              LDRH     r1,[r1,#0]  ; lcddev
0000a2  3934              SUBS     r1,r1,#0x34
0000a4  b288              UXTH     r0,r1
0000a6  2312              MOVS     r3,#0x12
0000a8  2102              MOVS     r1,#2
0000aa  f7fffffe          BL       LCD_Fill
                  |L7.174|
;;;184    
;;;185        while (1) {
0000ae  e0a0              B        |L7.498|
                  |L7.176|
;;;186            tp_dev.scan(0);
0000b0  4859              LDR      r0,|L7.536|
0000b2  6841              LDR      r1,[r0,#4]  ; tp_dev
0000b4  2000              MOVS     r0,#0
0000b6  4788              BLX      r1
;;;187    
;;;188            if (tp_dev.sta & TP_PRES_DOWN) {    //触摸屏被按下
0000b8  4857              LDR      r0,|L7.536|
0000ba  7d00              LDRB     r0,[r0,#0x14]  ; tp_dev
0000bc  f0000080          AND      r0,r0,#0x80
0000c0  2800              CMP      r0,#0
0000c2  d07d              BEQ      |L7.448|
;;;189                if (tp_dev.x < lcddev.width && tp_dev.y < lcddev.height) {
0000c4  4854              LDR      r0,|L7.536|
0000c6  8a00              LDRH     r0,[r0,#0x10]  ; tp_dev
0000c8  4951              LDR      r1,|L7.528|
0000ca  8809              LDRH     r1,[r1,#0]  ; lcddev
0000cc  4288              CMP      r0,r1
0000ce  daee              BGE      |L7.174|
0000d0  4851              LDR      r0,|L7.536|
0000d2  8a40              LDRH     r0,[r0,#0x12]  ; tp_dev
0000d4  494e              LDR      r1,|L7.528|
0000d6  8849              LDRH     r1,[r1,#2]  ; lcddev
0000d8  4288              CMP      r0,r1
0000da  dae8              BGE      |L7.174|
;;;190                    if (tp_dev.x > (lcddev.width - 24) && tp_dev.y < 16) {
0000dc  484e              LDR      r0,|L7.536|
0000de  8a01              LDRH     r1,[r0,#0x10]  ; tp_dev
0000e0  484b              LDR      r0,|L7.528|
0000e2  8800              LDRH     r0,[r0,#0]  ; lcddev
0000e4  3818              SUBS     r0,r0,#0x18
0000e6  4281              CMP      r1,r0
0000e8  dd3b              BLE      |L7.354|
0000ea  484b              LDR      r0,|L7.536|
0000ec  8a40              LDRH     r0,[r0,#0x12]  ; tp_dev
0000ee  2810              CMP      r0,#0x10
0000f0  da37              BGE      |L7.354|
;;;191                        LCD_Clear(WHITE);//清全屏
0000f2  f64f70ff          MOV      r0,#0xffff
0000f6  f7fffffe          BL       LCD_Clear
;;;192                        LCD_Fill(0, 0, lcddev.width, 20, BLUE);
0000fa  201f              MOVS     r0,#0x1f
0000fc  9000              STR      r0,[sp,#0]
0000fe  4844              LDR      r0,|L7.528|
000100  8802              LDRH     r2,[r0,#0]  ; lcddev
000102  2314              MOVS     r3,#0x14
000104  2100              MOVS     r1,#0
000106  4608              MOV      r0,r1
000108  f7fffffe          BL       LCD_Fill
;;;193                        LCD_Fill(0, lcddev.height - 20, lcddev.width, lcddev.height, BLUE);
00010c  201f              MOVS     r0,#0x1f
00010e  9000              STR      r0,[sp,#0]
000110  483f              LDR      r0,|L7.528|
000112  8843              LDRH     r3,[r0,#2]  ; lcddev
000114  8802              LDRH     r2,[r0,#0]  ; lcddev
000116  8840              LDRH     r0,[r0,#2]  ; lcddev
000118  3814              SUBS     r0,r0,#0x14
00011a  b281              UXTH     r1,r0
00011c  2000              MOVS     r0,#0
00011e  f7fffffe          BL       LCD_Fill
;;;194                        POINT_COLOR = RED;
000122  f44f4078          MOV      r0,#0xf800
000126  4933              LDR      r1,|L7.500|
000128  8008              STRH     r0,[r1,#0]
;;;195                        LCD_ShowString(lcddev.width - 24, 0, 16, "RST", 1); //显示清屏区域
00012a  2001              MOVS     r0,#1
00012c  4938              LDR      r1,|L7.528|
00012e  9000              STR      r0,[sp,#0]
000130  8809              LDRH     r1,[r1,#0]  ; lcddev
000132  3918              SUBS     r1,r1,#0x18
000134  b288              UXTH     r0,r1
000136  a337              ADR      r3,|L7.532|
000138  2210              MOVS     r2,#0x10
00013a  2100              MOVS     r1,#0
00013c  f7fffffe          BL       LCD_ShowString
;;;196                        POINT_COLOR = colorTemp;
000140  482c              LDR      r0,|L7.500|
000142  8007              STRH     r7,[r0,#0]
;;;197                        LCD_Fill(lcddev.width - 52, 2, lcddev.width - 50 + 20, 18, POINT_COLOR);
000144  8800              LDRH     r0,[r0,#0]  ; POINT_COLOR
000146  4932              LDR      r1,|L7.528|
000148  9000              STR      r0,[sp,#0]
00014a  8809              LDRH     r1,[r1,#0]  ; lcddev
00014c  391e              SUBS     r1,r1,#0x1e
00014e  b28a              UXTH     r2,r1
000150  492f              LDR      r1,|L7.528|
000152  8809              LDRH     r1,[r1,#0]  ; lcddev
000154  3934              SUBS     r1,r1,#0x34
000156  b288              UXTH     r0,r1
000158  2312              MOVS     r3,#0x12
00015a  2102              MOVS     r1,#2
00015c  f7fffffe          BL       LCD_Fill
000160  e047              B        |L7.498|
                  |L7.354|
;;;198                    } else if ((tp_dev.x > (lcddev.width - 60) && tp_dev.x < (lcddev.width - 50 + 20)) && tp_dev.y < 20) {
000162  482d              LDR      r0,|L7.536|
000164  8a01              LDRH     r1,[r0,#0x10]  ; tp_dev
000166  482a              LDR      r0,|L7.528|
000168  8800              LDRH     r0,[r0,#0]  ; lcddev
00016a  383c              SUBS     r0,r0,#0x3c
00016c  4281              CMP      r1,r0
00016e  dd35              BLE      |L7.476|
000170  4829              LDR      r0,|L7.536|
000172  8a01              LDRH     r1,[r0,#0x10]  ; tp_dev
000174  4826              LDR      r0,|L7.528|
000176  8800              LDRH     r0,[r0,#0]  ; lcddev
000178  381e              SUBS     r0,r0,#0x1e
00017a  4281              CMP      r1,r0
00017c  da2e              BGE      |L7.476|
00017e  4826              LDR      r0,|L7.536|
000180  8a40              LDRH     r0,[r0,#0x12]  ; tp_dev
000182  2814              CMP      r0,#0x14
000184  da2a              BGE      |L7.476|
;;;199                        LCD_Fill(lcddev.width - 52, 2, lcddev.width - 50 + 20, 18, ColorTab[j % 5]);
000186  2005              MOVS     r0,#5
000188  fb94f1f0          SDIV     r1,r4,r0
00018c  fb004011          MLS      r0,r0,r1,r4
000190  4922              LDR      r1,|L7.540|
000192  f8318010          LDRH     r8,[r1,r0,LSL #1]
000196  491e              LDR      r1,|L7.528|
000198  f8cd8000          STR      r8,[sp,#0]
00019c  8809              LDRH     r1,[r1,#0]  ; lcddev
00019e  391e              SUBS     r1,r1,#0x1e
0001a0  b28a              UXTH     r2,r1
0001a2  491b              LDR      r1,|L7.528|
0001a4  8809              LDRH     r1,[r1,#0]  ; lcddev
0001a6  3934              SUBS     r1,r1,#0x34
0001a8  b288              UXTH     r0,r1
0001aa  2312              MOVS     r3,#0x12
0001ac  2102              MOVS     r1,#2
0001ae  f7fffffe          BL       LCD_Fill
;;;200                        POINT_COLOR = ColorTab[(j++) % 5];
0001b2  4620              MOV      r0,r4
0001b4  1c61              ADDS     r1,r4,#1
0001b6  b28c              UXTH     r4,r1
0001b8  2105              MOVS     r1,#5
0001ba  fb90f2f1          SDIV     r2,r0,r1
0001be  e000              B        |L7.450|
                  |L7.448|
0001c0  e014              B        |L7.492|
                  |L7.450|
0001c2  fb010012          MLS      r0,r1,r2,r0
0001c6  4915              LDR      r1,|L7.540|
0001c8  f8310010          LDRH     r0,[r1,r0,LSL #1]
0001cc  4909              LDR      r1,|L7.500|
0001ce  8008              STRH     r0,[r1,#0]
;;;201                        colorTemp = POINT_COLOR;
0001d0  4608              MOV      r0,r1
0001d2  8807              LDRH     r7,[r0,#0]  ; POINT_COLOR
;;;202                        delay_ms(10);
0001d4  200a              MOVS     r0,#0xa
0001d6  f7fffffe          BL       delay_ms
0001da  e00a              B        |L7.498|
                  |L7.476|
;;;203                    }
;;;204    
;;;205                    else {
;;;206                        TP_Draw_Big_Point(tp_dev.x, tp_dev.y, POINT_COLOR);    //画图
0001dc  4a0e              LDR      r2,|L7.536|
0001de  8a51              LDRH     r1,[r2,#0x12]  ; tp_dev
0001e0  8a10              LDRH     r0,[r2,#0x10]  ; tp_dev
0001e2  4a04              LDR      r2,|L7.500|
0001e4  8812              LDRH     r2,[r2,#0]  ; POINT_COLOR
0001e6  f7fffffe          BL       TP_Draw_Big_Point
0001ea  e002              B        |L7.498|
                  |L7.492|
;;;207                    }
;;;208                }
;;;209            } else {
;;;210                delay_ms(10);    //没有按键按下的时候
0001ec  200a              MOVS     r0,#0xa
0001ee  f7fffffe          BL       delay_ms
                  |L7.498|
0001f2  e75d              B        |L7.176|
;;;211            }
;;;212        }
;;;213    }
;;;214    
                          ENDP

                  |L7.500|
                          DCD      POINT_COLOR
                  |L7.504|
                          DCD      BACK_COLOR
                  |L7.508|
0001fc  54455354          DCB      "TEST: Touch test...",0
000200  3a20546f
000204  75636820
000208  74657374
00020c  2e2e2e00
                  |L7.528|
                          DCD      lcddev
                  |L7.532|
000214  52535400          DCB      "RST",0
                  |L7.536|
                          DCD      tp_dev
                  |L7.540|
                          DCD      ColorTab

                          AREA ||.constdata||, DATA, READONLY, ALIGN=2

                  gImage_qq
000000  ffffffff          DCB      0xff,0xff,0xff,0xff
000004  ffffffff          DCB      0xff,0xff,0xff,0xff
000008  ffffffff          DCB      0xff,0xff,0xff,0xff
00000c  ffffffff          DCB      0xff,0xff,0xff,0xff
000010  ffffffff          DCB      0xff,0xff,0xff,0xff
000014  ffffffff          DCB      0xff,0xff,0xff,0xff
000018  ffffffff          DCB      0xff,0xff,0xff,0xff
00001c  ffffbef7          DCB      0xff,0xff,0xbe,0xf7
000020  ffffdeff          DCB      0xff,0xff,0xde,0xff
000024  38c6928c          DCB      0x38,0xc6,0x92,0x8c
000028  8e6b6e6b          DCB      0x8e,0x6b,0x6e,0x6b
00002c  107c96ad          DCB      0x10,0x7c,0x96,0xad
000030  3ce7ffff          DCB      0x3c,0xe7,0xff,0xff
000034  ffffffff          DCB      0xff,0xff,0xff,0xff
000038  ffffffff          DCB      0xff,0xff,0xff,0xff
00003c  ffffffff          DCB      0xff,0xff,0xff,0xff
000040  ffffffff          DCB      0xff,0xff,0xff,0xff
000044  ffffffff          DCB      0xff,0xff,0xff,0xff
000048  ffffffff          DCB      0xff,0xff,0xff,0xff
00004c  ffffffff          DCB      0xff,0xff,0xff,0xff
000050  ffffffff          DCB      0xff,0xff,0xff,0xff
000054  ffffffff          DCB      0xff,0xff,0xff,0xff
000058  ffffffff          DCB      0xff,0xff,0xff,0xff
00005c  ffffffff          DCB      0xff,0xff,0xff,0xff
000060  ffffffff          DCB      0xff,0xff,0xff,0xff
000064  ffffffff          DCB      0xff,0xff,0xff,0xff
000068  ffffffff          DCB      0xff,0xff,0xff,0xff
00006c  ffff5def          DCB      0xff,0xff,0x5d,0xef
000070  159d4f63          DCB      0x15,0x9d,0x4f,0x63
000074  6c420a32          DCB      0x6c,0x42,0x0a,0x32
000078  88294619          DCB      0x88,0x29,0x46,0x19
00007c  25194521          DCB      0x25,0x19,0x45,0x21
000080  e8318e6b          DCB      0xe8,0x31,0x8e,0x6b
000084  38c6ffff          DCB      0x38,0xc6,0xff,0xff
000088  ffffffff          DCB      0xff,0xff,0xff,0xff
00008c  ffffffff          DCB      0xff,0xff,0xff,0xff
000090  ffffffff          DCB      0xff,0xff,0xff,0xff
000094  ffffffff          DCB      0xff,0xff,0xff,0xff
000098  ffffffff          DCB      0xff,0xff,0xff,0xff
00009c  ffffffff          DCB      0xff,0xff,0xff,0xff
0000a0  ffffffff          DCB      0xff,0xff,0xff,0xff
0000a4  ffffffff          DCB      0xff,0xff,0xff,0xff
0000a8  ffffffff          DCB      0xff,0xff,0xff,0xff
0000ac  ffffffff          DCB      0xff,0xff,0xff,0xff
0000b0  ffffffff          DCB      0xff,0xff,0xff,0xff
0000b4  ffffffff          DCB      0xff,0xff,0xff,0xff
0000b8  ffffffff          DCB      0xff,0xff,0xff,0xff
0000bc  36a51053          DCB      0x36,0xa5,0x10,0x53
0000c0  104b5153          DCB      0x10,0x4b,0x51,0x53
0000c4  0f4b6c3a          DCB      0x0f,0x4b,0x6c,0x3a
0000c8  e9316721          DCB      0xe9,0x31,0x67,0x21
0000cc  2519e410          DCB      0x25,0x19,0xe4,0x10
0000d0  a3086200          DCB      0xa3,0x08,0x62,0x00
0000d4  8308cb52          DCB      0x83,0x08,0xcb,0x52
0000d8  9ad6ffff          DCB      0x9a,0xd6,0xff,0xff
0000dc  ffffffff          DCB      0xff,0xff,0xff,0xff
0000e0  ffffffff          DCB      0xff,0xff,0xff,0xff
0000e4  ffffffff          DCB      0xff,0xff,0xff,0xff
0000e8  ffffffff          DCB      0xff,0xff,0xff,0xff
0000ec  ffffffff          DCB      0xff,0xff,0xff,0xff
0000f0  ffffffff          DCB      0xff,0xff,0xff,0xff
0000f4  ffffffff          DCB      0xff,0xff,0xff,0xff
0000f8  ffffffff          DCB      0xff,0xff,0xff,0xff
0000fc  ffffffff          DCB      0xff,0xff,0xff,0xff
000100  ffffffff          DCB      0xff,0xff,0xff,0xff
000104  ffffffff          DCB      0xff,0xff,0xff,0xff
000108  3ce77063          DCB      0x3c,0xe7,0x70,0x63
00010c  b363b87c          DCB      0xb3,0x63,0xb8,0x7c
000110  f5631143          DCB      0xf5,0x63,0x11,0x43
000114  4d32ea29          DCB      0x4d,0x32,0xea,0x29
000118  88212619          DCB      0x88,0x21,0x26,0x19
00011c  05190519          DCB      0x05,0x19,0x05,0x19
000120  04110411          DCB      0x04,0x11,0x04,0x11
000124  e4108300          DCB      0xe4,0x10,0x83,0x00
000128  a308728c          DCB      0xa3,0x08,0x72,0x8c
00012c  ffffffff          DCB      0xff,0xff,0xff,0xff
000130  ffffffff          DCB      0xff,0xff,0xff,0xff
000134  ffffffff          DCB      0xff,0xff,0xff,0xff
000138  ffffffff          DCB      0xff,0xff,0xff,0xff
00013c  ffffffff          DCB      0xff,0xff,0xff,0xff
000140  ffffffff          DCB      0xff,0xff,0xff,0xff
000144  ffffffff          DCB      0xff,0xff,0xff,0xff
000148  ffffffff          DCB      0xff,0xff,0xff,0xff
00014c  ffffffff          DCB      0xff,0xff,0xff,0xff
000150  ffffffff          DCB      0xff,0xff,0xff,0xff
000154  ffffdbde          DCB      0xff,0xff,0xdb,0xde
000158  4b3af042          DCB      0x4b,0x3a,0xf0,0x42
00015c  356c544b          DCB      0x35,0x6c,0x54,0x4b
000160  b1322e2a          DCB      0xb1,0x32,0x2e,0x2a
000164  eb21a921          DCB      0xeb,0x21,0xa9,0x21
000168  67190519          DCB      0x67,0x19,0x05,0x19
00016c  04110411          DCB      0x04,0x11,0x04,0x11
000170  04110411          DCB      0x04,0x11,0x04,0x11
000174  04110519          DCB      0x04,0x11,0x05,0x19
000178  e4104200          DCB      0xe4,0x10,0x42,0x00
00017c  af73ffff          DCB      0xaf,0x73,0xff,0xff
000180  ffffffff          DCB      0xff,0xff,0xff,0xff
000184  ffffffff          DCB      0xff,0xff,0xff,0xff
000188  ffffffff          DCB      0xff,0xff,0xff,0xff
00018c  ffffffff          DCB      0xff,0xff,0xff,0xff
000190  ffffffff          DCB      0xff,0xff,0xff,0xff
000194  ffffffff          DCB      0xff,0xff,0xff,0xff
000198  ffffffff          DCB      0xff,0xff,0xff,0xff
00019c  ffffffff          DCB      0xff,0xff,0xff,0xff
0001a0  ffffffff          DCB      0xff,0xff,0xff,0xff
0001a4  5def0932          DCB      0x5d,0xef,0x09,0x32
0001a8  4c32104b          DCB      0x4c,0x32,0x10,0x4b
0001ac  8f324f2a          DCB      0x8f,0x32,0x4f,0x2a
0001b0  2e2acc19          DCB      0x2e,0x2a,0xcc,0x19
0001b4  89198921          DCB      0x89,0x19,0x89,0x21
0001b8  47190519          DCB      0x47,0x19,0x05,0x19
0001bc  04110411          DCB      0x04,0x11,0x04,0x11
0001c0  c410c410          DCB      0xc4,0x10,0xc4,0x10
0001c4  04110411          DCB      0x04,0x11,0x04,0x11
0001c8  0411e410          DCB      0x04,0x11,0xe4,0x10
0001cc  42003184          DCB      0x42,0x00,0x31,0x84
0001d0  ffffffff          DCB      0xff,0xff,0xff,0xff
0001d4  ffffffff          DCB      0xff,0xff,0xff,0xff
0001d8  ffffffff          DCB      0xff,0xff,0xff,0xff
0001dc  ffffffff          DCB      0xff,0xff,0xff,0xff
0001e0  ffffffff          DCB      0xff,0xff,0xff,0xff
0001e4  ffffffff          DCB      0xff,0xff,0xff,0xff
0001e8  ffffffff          DCB      0xff,0xff,0xff,0xff
0001ec  ffffffff          DCB      0xff,0xff,0xff,0xff
0001f0  ffffffff          DCB      0xff,0xff,0xff,0xff
0001f4  ec524719          DCB      0xec,0x52,0x47,0x19
0001f8  4c320b2a          DCB      0x4c,0x32,0x0b,0x2a
0001fc  ec21ec21          DCB      0xec,0x21,0xec,0x21
000200  0c22915b          DCB      0x0c,0x22,0x91,0x5b
000204  ee4a0611          DCB      0xee,0x4a,0x06,0x11
000208  26190419          DCB      0x26,0x19,0x04,0x19
00020c  e410e410          DCB      0xe4,0x10,0xe4,0x10
000210  a7296621          DCB      0xa7,0x29,0x66,0x21
000214  a3080519          DCB      0xa3,0x08,0x05,0x19
000218  04110411          DCB      0x04,0x11,0x04,0x11
00021c  e4108200          DCB      0xe4,0x10,0x82,0x00
000220  f7bdffff          DCB      0xf7,0xbd,0xff,0xff
000224  ffffffff          DCB      0xff,0xff,0xff,0xff
000228  ffffffff          DCB      0xff,0xff,0xff,0xff
00022c  ffffffff          DCB      0xff,0xff,0xff,0xff
000230  ffffffff          DCB      0xff,0xff,0xff,0xff
000234  ffffffff          DCB      0xff,0xff,0xff,0xff
000238  ffffffff          DCB      0xff,0xff,0xff,0xff
00023c  ffffffff          DCB      0xff,0xff,0xff,0xff
000240  ffff35a5          DCB      0xff,0xff,0x35,0xa5
000244  83088821          DCB      0x83,0x08,0x88,0x21
000248  88218921          DCB      0x88,0x21,0x89,0x21
00024c  aa218a21          DCB      0xaa,0x21,0x8a,0x21
000250  6b42718c          DCB      0x6b,0x42,0x71,0x8c
000254  ffff728c          DCB      0xff,0xff,0x72,0x8c
000258  83080411          DCB      0x83,0x08,0x04,0x11
00025c  c4082942          DCB      0xc4,0x08,0x29,0x42
000260  fbde5def          DCB      0xfb,0xde,0x5d,0xef
000264  ec5a8308          DCB      0xec,0x5a,0x83,0x08
000268  04110411          DCB      0x04,0x11,0x04,0x11
00026c  04118308          DCB      0x04,0x11,0x83,0x08
000270  e831dfff          DCB      0xe8,0x31,0xdf,0xff
000274  ffffffff          DCB      0xff,0xff,0xff,0xff
000278  ffffffff          DCB      0xff,0xff,0xff,0xff
00027c  ffffffff          DCB      0xff,0xff,0xff,0xff
000280  ffffffff          DCB      0xff,0xff,0xff,0xff
000284  ffffffff          DCB      0xff,0xff,0xff,0xff
000288  ffffffff          DCB      0xff,0xff,0xff,0xff
00028c  ffffffff          DCB      0xff,0xff,0xff,0xff
000290  bef7c731          DCB      0xbe,0xf7,0xc7,0x31
000294  c4102519          DCB      0xc4,0x10,0x25,0x19
000298  26194719          DCB      0x26,0x19,0x47,0x19
00029c  4719a829          DCB      0x47,0x19,0xa8,0x29
0002a0  8a52284a          DCB      0x8a,0x52,0x28,0x4a
0002a4  55adffff          DCB      0x55,0xad,0xff,0xff
0002a8  e831a308          DCB      0xe8,0x31,0xa3,0x08
0002ac  05194d6b          DCB      0x05,0x19,0x4d,0x6b
0002b0  4d6bffff          DCB      0x4d,0x6b,0xff,0xff
0002b4  7def4521          DCB      0x7d,0xef,0x45,0x21
0002b8  c4100411          DCB      0xc4,0x10,0x04,0x11
0002bc  04110411          DCB      0x04,0x11,0x04,0x11
0002c0  620076ad          DCB      0x62,0x00,0x76,0xad
0002c4  ffffffff          DCB      0xff,0xff,0xff,0xff
0002c8  ffffffff          DCB      0xff,0xff,0xff,0xff
0002cc  ffffffff          DCB      0xff,0xff,0xff,0xff
0002d0  ffffffff          DCB      0xff,0xff,0xff,0xff
0002d4  ffffffff          DCB      0xff,0xff,0xff,0xff
0002d8  ffffffff          DCB      0xff,0xff,0xff,0xff
0002dc  ffffffff          DCB      0xff,0xff,0xff,0xff
0002e0  96b56200          DCB      0x96,0xb5,0x62,0x00
0002e4  04110419          DCB      0x04,0x11,0x04,0x19
0002e8  05110519          DCB      0x05,0x11,0x05,0x19
0002ec  c4088b4a          DCB      0xc4,0x08,0x8b,0x4a
0002f0  b6b55def          DCB      0xb6,0xb5,0x5d,0xef
0002f4  f7bdffff          DCB      0xf7,0xbd,0xff,0xff
0002f8  8e6b6200          DCB      0x8e,0x6b,0x62,0x00
0002fc  2942aa5a          DCB      0x29,0x42,0xaa,0x5a
000300  0842ffff          DCB      0x08,0x42,0xff,0xff
000304  ffffcc52          DCB      0xff,0xff,0xcc,0x52
000308  83080411          DCB      0x83,0x08,0x04,0x11
00030c  04110411          DCB      0x04,0x11,0x04,0x11
000310  a308ad52          DCB      0xa3,0x08,0xad,0x52
000314  ffffffff          DCB      0xff,0xff,0xff,0xff
000318  ffffffff          DCB      0xff,0xff,0xff,0xff
00031c  ffffffff          DCB      0xff,0xff,0xff,0xff
000320  ffffffff          DCB      0xff,0xff,0xff,0xff
000324  ffff1ce7          DCB      0xff,0xff,0x1c,0xe7
000328  ffffffff          DCB      0xff,0xff,0xff,0xff
00032c  ffffffff          DCB      0xff,0xff,0xff,0xff
000330  4e636200          DCB      0x4e,0x63,0x62,0x00
000334  04110411          DCB      0x04,0x11,0x04,0x11
000338  0411e410          DCB      0x04,0x11,0xe4,0x10
00033c  62008e63          DCB      0x62,0x00,0x8e,0x63
000340  ffffffff          DCB      0xff,0xff,0xff,0xff
000344  ffffffff          DCB      0xff,0xff,0xff,0xff
000348  cf730100          DCB      0xcf,0x73,0x01,0x00
00034c  f39c2c63          DCB      0xf3,0x9c,0x2c,0x63
000350  96b5ffff          DCB      0x96,0xb5,0xff,0xff
000354  ffff2d5b          DCB      0xff,0xff,0x2d,0x5b
000358  83000411          DCB      0x83,0x00,0x04,0x11
00035c  04110411          DCB      0x04,0x11,0x04,0x11
000360  e4106721          DCB      0xe4,0x10,0x67,0x21
000364  3defffff          DCB      0x3d,0xef,0xff,0xff
000368  ffffffff          DCB      0xff,0xff,0xff,0xff
00036c  ffffffff          DCB      0xff,0xff,0xff,0xff
000370  f8bdb7b5          DCB      0xf8,0xbd,0xb7,0xb5
000374  9eefcb52          DCB      0x9e,0xef,0xcb,0x52
000378  b394ffff          DCB      0xb3,0x94,0xff,0xff
00037c  ffffdfff          DCB      0xff,0xff,0xdf,0xff
000380  e831a308          DCB      0xe8,0x31,0xa3,0x08
000384  04110411          DCB      0x04,0x11,0x04,0x11
000388  04110411          DCB      0x04,0x11,0x04,0x11
00038c  a3084942          DCB      0xa3,0x08,0x49,0x42
000390  fff7fff7          DCB      0xff,0xf7,0xff,0xf7
000394  ffffffff          DCB      0xff,0xff,0xff,0xff
000398  6a4a0100          DCB      0x6a,0x4a,0x01,0x00
00039c  7284ffff          DCB      0x72,0x84,0xff,0xff
0003a0  fffffff7          DCB      0xff,0xff,0xff,0xf7
0003a4  dfef093a          DCB      0xdf,0xef,0x09,0x3a
0003a8  a3080411          DCB      0xa3,0x08,0x04,0x11
0003ac  04110411          DCB      0x04,0x11,0x04,0x11
0003b0  04110511          DCB      0x04,0x11,0x05,0x11
0003b4  18beffff          DCB      0x18,0xbe,0xff,0xff
0003b8  ffffffff          DCB      0xff,0xff,0xff,0xff
0003bc  ffffffff          DCB      0xff,0xff,0xff,0xff
0003c0  f07b6200          DCB      0xf0,0x7b,0x62,0x00
0003c4  e831c731          DCB      0xe8,0x31,0xc7,0x31
0003c8  410035a5          DCB      0x41,0x00,0x35,0xa5
0003cc  ffff5def          DCB      0xff,0xff,0x5d,0xef
0003d0  4621c410          DCB      0x46,0x21,0xc4,0x10
0003d4  04110411          DCB      0x04,0x11,0x04,0x11
0003d8  04110411          DCB      0x04,0x11,0x04,0x11
0003dc  e410a308          DCB      0xe4,0x10,0xa3,0x08
0003e0  769dfff7          DCB      0x76,0x9d,0xff,0xf7
0003e4  ffffb7ad          DCB      0xff,0xff,0xb7,0xad
0003e8  a308a308          DCB      0xa3,0x08,0xa3,0x08
0003ec  c7319ee7          DCB      0xc7,0x31,0x9e,0xe7
0003f0  fff7fff7          DCB      0xff,0xf7,0xff,0xf7
0003f4  76a5a308          DCB      0x76,0xa5,0xa3,0x08
0003f8  e4100411          DCB      0xe4,0x10,0x04,0x11
0003fc  04110411          DCB      0x04,0x11,0x04,0x11
000400  05110511          DCB      0x05,0x11,0x05,0x11
000404  35a5ffff          DCB      0x35,0xa5,0xff,0xff
000408  ffffffff          DCB      0xff,0xff,0xff,0xff
00040c  ffffffff          DCB      0xff,0xff,0xff,0xff
000410  dbdea729          DCB      0xdb,0xde,0xa7,0x29
000414  8300c410          DCB      0x83,0x00,0xc4,0x10
000418  c410c410          DCB      0xc4,0x10,0xc4,0x10
00041c  1ce79eef          DCB      0x1c,0xe7,0x9e,0xef
000420  0511e410          DCB      0x05,0x11,0xe4,0x10
000424  04110411          DCB      0x04,0x11,0x04,0x11
000428  04110411          DCB      0x04,0x11,0x04,0x11
00042c  0419c408          DCB      0x04,0x19,0xc4,0x08
000430  e510d16b          DCB      0xe5,0x10,0xd1,0x6b
000434  d16bc508          DCB      0xd1,0x6b,0xc5,0x08
000438  6400a508          DCB      0x64,0x00,0xa5,0x08
00043c  43002b32          DCB      0x43,0x00,0x2b,0x32
000440  779db384          DCB      0x77,0x9d,0xb3,0x84
000444  2519c410          DCB      0x25,0x19,0xc4,0x10
000448  04110411          DCB      0x04,0x11,0x04,0x11
00044c  04110411          DCB      0x04,0x11,0x04,0x11
000450  25192609          DCB      0x25,0x19,0x26,0x09
000454  359dffff          DCB      0x35,0x9d,0xff,0xff
000458  ffffffff          DCB      0xff,0xff,0xff,0xff
00045c  ffffffff          DCB      0xff,0xff,0xff,0xff
000460  ffffaf73          DCB      0xff,0xff,0xaf,0x73
000464  62000419          DCB      0x62,0x00,0x04,0x19
000468  05198200          DCB      0x05,0x19,0x82,0x00
00046c  0d5b8e9b          DCB      0x0d,0x5b,0x8e,0x9b
000470  62100511          DCB      0x62,0x10,0x05,0x11
000474  04110411          DCB      0x04,0x11,0x04,0x11
000478  0419e410          DCB      0x04,0x19,0xe4,0x10
00047c  85000511          DCB      0x85,0x00,0x05,0x11
000480  c439815a          DCB      0xc4,0x39,0x81,0x5a
000484  407b229c          DCB      0x40,0x7b,0x22,0x9c
000488  43ac03a4          DCB      0x43,0xac,0x03,0xa4
00048c  839b8272          DCB      0x83,0x9b,0x82,0x72
000490  8249c218          DCB      0x82,0x49,0xc2,0x18
000494  a400c500          DCB      0xa4,0x00,0xc5,0x00
000498  e4100419          DCB      0xe4,0x10,0x04,0x19
00049c  04110519          DCB      0x04,0x11,0x05,0x19
0004a0  47196711          DCB      0x47,0x19,0x67,0x11
0004a4  ec5abeff          DCB      0xec,0x5a,0xbe,0xff
0004a8  ffffffff          DCB      0xff,0xff,0xff,0xff
0004ac  ffffffff          DCB      0xff,0xff,0xff,0xff
0004b0  dfffdbde          DCB      0xdf,0xff,0xdb,0xde
0004b4  c410e410          DCB      0xc4,0x10,0xe4,0x10
0004b8  04110511          DCB      0x04,0x11,0x05,0x11
0004bc  a41801c0          DCB      0xa4,0x18,0x01,0xc0
0004c0  8388e400          DCB      0x83,0x88,0xe4,0x00
0004c4  05190419          DCB      0x05,0x19,0x04,0x19
0004c8  c5084421          DCB      0xc5,0x08,0x44,0x21
0004cc  438323d5          DCB      0x43,0x83,0x23,0xd5
0004d0  42fee4fe          DCB      0x42,0xfe,0xe4,0xfe
0004d4  27ff07ff          DCB      0x27,0xff,0x07,0xff
0004d8  a4fe64fe          DCB      0xa4,0xfe,0x64,0xfe
0004dc  03fea3fd          DCB      0x03,0xfe,0xa3,0xfd
0004e0  e2fc42ec          DCB      0xe2,0xfc,0x42,0xec
0004e4  83b32462          DCB      0x83,0xb3,0x24,0x62
0004e8  e510c408          DCB      0xe5,0x10,0xc4,0x08
0004ec  04192619          DCB      0x04,0x19,0x26,0x19
0004f0  a8198721          DCB      0xa8,0x19,0x87,0x21
0004f4  0090d3bc          DCB      0x00,0x90,0xd3,0xbc
0004f8  ffffffff          DCB      0xff,0xff,0xff,0xff
0004fc  ffffffff          DCB      0xff,0xff,0xff,0xff
000500  dfffffff          DCB      0xdf,0xff,0xff,0xff
000504  107c4200          DCB      0x10,0x7c,0x42,0x00
000508  05190511          DCB      0x05,0x19,0x05,0x11
00050c  832801d0          DCB      0x83,0x28,0x01,0xd0
000510  44f8a348          DCB      0x44,0xf8,0xa3,0x48
000514  e400c508          DCB      0xe4,0x00,0xc5,0x08
000518  445a02ed          DCB      0x44,0x5a,0x02,0xed
00051c  e2fd02fe          DCB      0xe2,0xfd,0x02,0xfe
000520  66fe74ff          DCB      0x66,0xfe,0x74,0xff
000524  b8ff73ff          DCB      0xb8,0xff,0x73,0xff
000528  e7f6a6f6          DCB      0xe7,0xf6,0xa6,0xf6
00052c  45f6a4f5          DCB      0x45,0xf6,0xa4,0xf5
000530  c3fc62fc          DCB      0xc3,0xfc,0x62,0xfc
000534  c2fcc2fc          DCB      0xc2,0xfc,0xc2,0xfc
000538  e3cbc449          DCB      0xe3,0xcb,0xc4,0x49
00053c  06118819          DCB      0x06,0x11,0x88,0x19
000540  8701a490          DCB      0x87,0x01,0xa4,0x90
000544  01f8ec9a          DCB      0x01,0xf8,0xec,0x9a
000548  ffffffff          DCB      0xff,0xff,0xff,0xff
00054c  ffffffff          DCB      0xff,0xff,0xff,0xff
000550  ffffffff          DCB      0xff,0xff,0xff,0xff
000554  bef7e831          DCB      0xbe,0xf7,0xe8,0x31
000558  83000509          DCB      0x83,0x00,0x05,0x09
00055c  824001c0          DCB      0x82,0x40,0x01,0xc0
000560  23f885f0          DCB      0x23,0xf8,0x85,0xf0
000564  a348a400          DCB      0xa3,0x48,0xa4,0x00
000568  445a02fd          DCB      0x44,0x5a,0x02,0xfd
00056c  23ccc2dc          DCB      0x23,0xcc,0xc2,0xdc
000570  04fe28fe          DCB      0x04,0xfe,0x28,0xfe
000574  48f646f6          DCB      0x48,0xf6,0x46,0xf6
000578  24f6e4f5          DCB      0x24,0xf6,0xe4,0xf5
00057c  64fde3fc          DCB      0x64,0xfd,0xe3,0xfc
000580  62fcc2fc          DCB      0x62,0xfc,0xc2,0xfc
000584  02e402dc          DCB      0x02,0xe4,0x02,0xdc
000588  e2fca47a          DCB      0xe2,0xfc,0xa4,0x7a
00058c  48016701          DCB      0x48,0x01,0x67,0x01
000590  c47824f8          DCB      0xc4,0x78,0x24,0xf8
000594  02f884b0          DCB      0x02,0xf8,0x84,0xb0
000598  7de7ffff          DCB      0x7d,0xe7,0xff,0xff
00059c  ffffffff          DCB      0xff,0xff,0xff,0xff
0005a0  ffffffff          DCB      0xff,0xff,0xff,0xff
0005a4  ffffdbde          DCB      0xff,0xff,0xdb,0xde
0005a8  2519a300          DCB      0x25,0x19,0xa3,0x00
0005ac  c43802e0          DCB      0xc4,0x38,0x02,0xe0
0005b0  22d844f8          DCB      0x22,0xd8,0x44,0xf8
0005b4  a6f8a478          DCB      0xa6,0xf8,0xa4,0x78
0005b8  63004321          DCB      0x63,0x00,0x43,0x21
0005bc  83728339          DCB      0x83,0x72,0x83,0x39
0005c0  829b21f5          DCB      0x82,0x9b,0x21,0xf5
0005c4  61fd22fd          DCB      0x61,0xfd,0x22,0xfd
0005c8  e2fca2fc          DCB      0xe2,0xfc,0xa2,0xfc
0005cc  42fc42fc          DCB      0x42,0xfc,0x42,0xfc
0005d0  42fc22ab          DCB      0x42,0xfc,0x22,0xab
0005d4  8341c392          DCB      0x83,0x41,0xc3,0x92
0005d8  04522601          DCB      0x04,0x52,0x26,0x01
0005dc  2519a498          DCB      0x25,0x19,0xa4,0x98
0005e0  44f823f8          DCB      0x44,0xf8,0x23,0xf8
0005e4  02f8a4d0          DCB      0x02,0xf8,0xa4,0xd0
0005e8  9eefffff          DCB      0x9e,0xef,0xff,0xff
0005ec  ffffffff          DCB      0xff,0xff,0xff,0xff
0005f0  ffffffff          DCB      0xff,0xff,0xff,0xff
0005f4  ffffffff          DCB      0xff,0xff,0xff,0xff
0005f8  9ad68729          DCB      0x9a,0xd6,0x87,0x29
0005fc  a50043b8          DCB      0xa5,0x00,0x43,0xb8
000600  22f823e0          DCB      0x22,0xf8,0x23,0xe0
000604  65f8e8f8          DCB      0x65,0xf8,0xe8,0xf8
000608  07c98348          DCB      0x07,0xc9,0x83,0x48
00060c  4200a300          DCB      0x42,0x00,0xa3,0x00
000610  84006329          DCB      0x84,0x00,0x63,0x29
000614  a27a62b3          DCB      0xa2,0x7a,0x62,0xb3
000618  a2cb62d3          DCB      0xa2,0xcb,0x62,0xd3
00061c  02bb828a          DCB      0x02,0xbb,0x82,0x8a
000620  8339a400          DCB      0x83,0x39,0xa4,0x00
000624  e500e500          DCB      0xe5,0x00,0xe5,0x00
000628  e508c460          DCB      0xe5,0x08,0xc4,0x60
00062c  64d844f8          DCB      0x64,0xd8,0x44,0xf8
000630  24f823f8          DCB      0x24,0xf8,0x23,0xf8
000634  02f88388          DCB      0x02,0xf8,0x83,0x88
000638  dbc6ffff          DCB      0xdb,0xc6,0xff,0xff
00063c  ffffffff          DCB      0xff,0xff,0xff,0xff
000640  ffffffff          DCB      0xff,0xff,0xff,0xff
000644  ffffffff          DCB      0xff,0xff,0xff,0xff
000648  ffff3de7          DCB      0xff,0xff,0x3d,0xe7
00064c  505b0831          DCB      0x50,0x5b,0x08,0x31
000650  23e843f8          DCB      0x23,0xe8,0x43,0xf8
000654  44f065f8          DCB      0x44,0xf0,0x65,0xf8
000658  09f9abf9          DCB      0x09,0xf9,0xab,0xf9
00065c  89d10689          DCB      0x89,0xd1,0x06,0x89
000660  a3484218          DCB      0xa3,0x48,0x42,0x18
000664  02004200          DCB      0x02,0x00,0x42,0x00
000668  61008200          DCB      0x61,0x00,0x82,0x00
00066c  62006200          DCB      0x62,0x00,0x62,0x00
000670  8300a320          DCB      0x83,0x00,0xa3,0x20
000674  c450a588          DCB      0xc4,0x50,0xa5,0x88
000678  85d865f8          DCB      0x85,0xd8,0x65,0xf8
00067c  44f844f8          DCB      0x44,0xf8,0x44,0xf8
000680  23f823f8          DCB      0x23,0xf8,0x23,0xf8
000684  03d08210          DCB      0x03,0xd0,0x82,0x10
000688  c7295def          DCB      0xc7,0x29,0x5d,0xef
00068c  ffffffff          DCB      0xff,0xff,0xff,0xff
000690  ffffffff          DCB      0xff,0xff,0xff,0xff
000694  ffffffff          DCB      0xff,0xff,0xff,0xff
000698  ffffffff          DCB      0xff,0xff,0xff,0xff
00069c  ffff6c32          DCB      0xff,0xff,0x6c,0x32
0006a0  a53802d8          DCB      0xa5,0x38,0x02,0xd8
0006a4  23f865f8          DCB      0x23,0xf8,0x65,0xf8
0006a8  66f8a7f8          DCB      0x66,0xf8,0xa7,0xf8
0006ac  4af90cfa          DCB      0x4a,0xf9,0x0c,0xfa
0006b0  4dfa4cea          DCB      0x4d,0xfa,0x4c,0xea
0006b4  0bd2a9b9          DCB      0x0b,0xd2,0xa9,0xb9
0006b8  68b147a9          DCB      0x68,0xb1,0x47,0xa9
0006bc  27b107b9          DCB      0x27,0xb1,0x07,0xb9
0006c0  07d1e7e8          DCB      0x07,0xd1,0xe7,0xe8
0006c4  c7f8a7f8          DCB      0xc7,0xf8,0xa7,0xf8
0006c8  65f865f8          DCB      0x65,0xf8,0x65,0xf8
0006cc  44f823f8          DCB      0x44,0xf8,0x23,0xf8
0006d0  03f802d0          DCB      0x03,0xf8,0x02,0xd0
0006d4  a3280509          DCB      0xa3,0x28,0x05,0x09
0006d8  c408ec5a          DCB      0xc4,0x08,0xec,0x5a
0006dc  ffffffff          DCB      0xff,0xff,0xff,0xff
0006e0  ffffffff          DCB      0xff,0xff,0xff,0xff
0006e4  ffffffff          DCB      0xff,0xff,0xff,0xff
0006e8  ffffffff          DCB      0xff,0xff,0xff,0xff
0006ec  fbde0519          DCB      0xfb,0xde,0x05,0x19
0006f0  c400a741          DCB      0xc4,0x00,0xa7,0x41
0006f4  e6c003f8          DCB      0xe6,0xc0,0x03,0xf8
0006f8  86f8a7f8          DCB      0x86,0xf8,0xa7,0xf8
0006fc  87f886f8          DCB      0x87,0xf8,0x86,0xf8
000700  c7f829f9          DCB      0xc7,0xf8,0x29,0xf9
000704  8af9abf9          DCB      0x8a,0xf9,0xab,0xf9
000708  abf98bf9          DCB      0xab,0xf9,0x8b,0xf9
00070c  6af929f9          DCB      0x6a,0xf9,0x29,0xf9
000710  08f9c7f8          DCB      0x08,0xf9,0xc7,0xf8
000714  a6f886f8          DCB      0xa6,0xf8,0x86,0xf8
000718  65f864f8          DCB      0x65,0xf8,0x64,0xf8
00071c  23f802f0          DCB      0x23,0xf8,0x02,0xf0
000720  06b12529          DCB      0x06,0xb1,0x25,0x29
000724  e400e410          DCB      0xe4,0x00,0xe4,0x10
000728  25192519          DCB      0x25,0x19,0x25,0x19
00072c  149dffff          DCB      0x14,0x9d,0xff,0xff
000730  ffffffff          DCB      0xff,0xff,0xff,0xff
000734  ffffffff          DCB      0xff,0xff,0xff,0xff
000738  ffffffff          DCB      0xff,0xff,0xff,0xff
00073c  96ad6200          DCB      0x96,0xad,0x62,0x00
000740  82083595          DCB      0x82,0x08,0x35,0x95
000744  bace8ba2          DCB      0xba,0xce,0x8b,0xa2
000748  44d025f8          DCB      0x44,0xd0,0x25,0xf8
00074c  87f8a7f8          DCB      0x87,0xf8,0xa7,0xf8
000750  c7f8a7f8          DCB      0xc7,0xf8,0xa7,0xf8
000754  87f886f8          DCB      0x87,0xf8,0x86,0xf8
000758  86f886f8          DCB      0x86,0xf8,0x86,0xf8
00075c  87f8a7f8          DCB      0x87,0xf8,0xa7,0xf8
000760  a7f8a6f8          DCB      0xa7,0xf8,0xa6,0xf8
000764  85f865f8          DCB      0x85,0xf8,0x65,0xf8
000768  64f824f0          DCB      0x64,0xf8,0x24,0xf0
00076c  64b80d93          DCB      0x64,0xb8,0x0d,0x93
000770  bbb6cf63          DCB      0xbb,0xb6,0xcf,0x63
000774  83080411          DCB      0x83,0x08,0x04,0x11
000778  e4106621          DCB      0xe4,0x10,0x66,0x21
00077c  493a5def          DCB      0x49,0x3a,0x5d,0xef
000780  ffffffff          DCB      0xff,0xff,0xff,0xff
000784  ffffffff          DCB      0xff,0xff,0xff,0xff
000788  ffffffff          DCB      0xff,0xff,0xff,0xff
00078c  d3944200          DCB      0xd3,0x94,0x42,0x00
000790  e410bbce          DCB      0xe4,0x10,0xbb,0xce
000794  ffffbee7          DCB      0xff,0xff,0xbe,0xe7
000798  76b5ccaa          DCB      0x76,0xb5,0xcc,0xaa
00079c  07c145e0          DCB      0x07,0xc1,0x45,0xe0
0007a0  45f846f8          DCB      0x45,0xf8,0x46,0xf8
0007a4  66f886f8          DCB      0x66,0xf8,0x86,0xf8
0007a8  86f886f8          DCB      0x86,0xf8,0x86,0xf8
0007ac  86f865f8          DCB      0x86,0xf8,0x65,0xf8
0007b0  45f865f8          DCB      0x45,0xf8,0x65,0xf8
0007b4  65e844d0          DCB      0x65,0xe8,0x44,0xd0
0007b8  43a80188          DCB      0x43,0xa8,0x01,0x88
0007bc  82903cd7          DCB      0x82,0x90,0x3c,0xd7
0007c0  ffef5595          DCB      0xff,0xef,0x55,0x95
0007c4  83080411          DCB      0x83,0x08,0x04,0x11
0007c8  04110519          DCB      0x04,0x11,0x05,0x19
0007cc  4619b394          DCB      0x46,0x19,0xb3,0x94
0007d0  ffffffff          DCB      0xff,0xff,0xff,0xff
0007d4  ffffffff          DCB      0xff,0xff,0xff,0xff
0007d8  ffffffff          DCB      0xff,0xff,0xff,0xff
0007dc  b3944100          DCB      0xb3,0x94,0x41,0x00
0007e0  86215ddf          DCB      0x86,0x21,0x5d,0xdf
0007e4  ffffffff          DCB      0xff,0xff,0xff,0xff
0007e8  ffffdfe7          DCB      0xff,0xff,0xdf,0xe7
0007ec  7ac6d3b4          DCB      0x7a,0xc6,0xd3,0xb4
0007f0  4eb32ac2          DCB      0x4e,0xb3,0x2a,0xc2
0007f4  68d1e6e0          DCB      0x68,0xd1,0xe6,0xe0
0007f8  a6e8a5e8          DCB      0xa6,0xe8,0xa5,0xe8
0007fc  a5e8e6d8          DCB      0xa5,0xe8,0xe6,0xd8
000800  88c906a9          DCB      0x88,0xc9,0x06,0xa9
000804  22a802a8          DCB      0x22,0xa8,0x02,0xa8
000808  00a000c8          DCB      0x00,0xa0,0x00,0xc8
00080c  00d8f7e5          DCB      0x00,0xd8,0xf7,0xe5
000810  ffe7f8ad          DCB      0xff,0xe7,0xf8,0xad
000814  c410e410          DCB      0xc4,0x10,0xe4,0x10
000818  0411e410          DCB      0x04,0x11,0xe4,0x10
00081c  05118b4a          DCB      0x05,0x11,0x8b,0x4a
000820  ffffffff          DCB      0xff,0xff,0xff,0xff
000824  ffffffff          DCB      0xff,0xff,0xff,0xff
000828  ffffffff          DCB      0xff,0xff,0xff,0xff
00082c  55a54100          DCB      0x55,0xa5,0x41,0x00
000830  a7295ddf          DCB      0xa7,0x29,0x5d,0xdf
000834  fff7ffff          DCB      0xff,0xf7,0xff,0xff
000838  ffffffff          DCB      0xff,0xff,0xff,0xff
00083c  ffffffff          DCB      0xff,0xff,0xff,0xff
000840  ffef7ddf          DCB      0xff,0xef,0x7d,0xdf
000844  dbce59ce          DCB      0xdb,0xce,0x59,0xce
000848  f8cdd7cd          DCB      0xf8,0xcd,0xd7,0xcd
00084c  f7c579ce          DCB      0xf7,0xc5,0x79,0xce
000850  fbbeaba2          DCB      0xfb,0xbe,0xab,0xa2
000854  03f045f8          DCB      0x03,0xf0,0x45,0xf8
000858  42d043e8          DCB      0x42,0xd0,0x43,0xe8
00085c  00f072d4          DCB      0x00,0xf0,0x72,0xd4
000860  ffdf39ae          DCB      0xff,0xdf,0x39,0xae
000864  e410e410          DCB      0xe4,0x10,0xe4,0x10
000868  0411e410          DCB      0x04,0x11,0xe4,0x10
00086c  05118729          DCB      0x05,0x11,0x87,0x29
000870  ffffffff          DCB      0xff,0xff,0xff,0xff
000874  ffffffff          DCB      0xff,0xff,0xff,0xff
000878  ffffffff          DCB      0xff,0xff,0xff,0xff
00087c  59ce8308          DCB      0x59,0xce,0x83,0x08
000880  46211cd7          DCB      0x46,0x21,0x1c,0xd7
000884  fff7ffff          DCB      0xff,0xf7,0xff,0xff
000888  ffffffff          DCB      0xff,0xff,0xff,0xff
00088c  ffffffff          DCB      0xff,0xff,0xff,0xff
000890  ffffffff          DCB      0xff,0xff,0xff,0xff
000894  ffffffff          DCB      0xff,0xff,0xff,0xff
000898  ffffffff          DCB      0xff,0xff,0xff,0xff
00089c  ffffffff          DCB      0xff,0xff,0xff,0xff
0008a0  ffef8bba          DCB      0xff,0xef,0x8b,0xba
0008a4  04f845f8          DCB      0x04,0xf8,0x45,0xf8
0008a8  62e044f0          DCB      0x62,0xe0,0x44,0xf0
0008ac  00f88edb          DCB      0x00,0xf8,0x8e,0xdb
0008b0  ffdff8a5          DCB      0xff,0xdf,0xf8,0xa5
0008b4  c410e410          DCB      0xc4,0x10,0xe4,0x10
0008b8  e4100411          DCB      0xe4,0x10,0x04,0x11
0008bc  e4102519          DCB      0xe4,0x10,0x25,0x19
0008c0  ffffffff          DCB      0xff,0xff,0xff,0xff
0008c4  ffffffff          DCB      0xff,0xff,0xff,0xff
0008c8  ffffffff          DCB      0xff,0xff,0xff,0xff
0008cc  bef78729          DCB      0xbe,0xf7,0x87,0x29
0008d0  830839b6          DCB      0x83,0x08,0x39,0xb6
0008d4  fff7dff7          DCB      0xff,0xf7,0xdf,0xf7
0008d8  ffffffff          DCB      0xff,0xff,0xff,0xff
0008dc  ffffffff          DCB      0xff,0xff,0xff,0xff
0008e0  ffffffff          DCB      0xff,0xff,0xff,0xff
0008e4  ffffffff          DCB      0xff,0xff,0xff,0xff
0008e8  ffffffff          DCB      0xff,0xff,0xff,0xff
0008ec  ffffffff          DCB      0xff,0xff,0xff,0xff
0008f0  bee74aba          DCB      0xbe,0xe7,0x4a,0xba
0008f4  03f845f8          DCB      0x03,0xf8,0x45,0xf8
0008f8  64f844f8          DCB      0x64,0xf8,0x44,0xf8
0008fc  00f86ee3          DCB      0x00,0xf8,0x6e,0xe3
000900  ffd7f48c          DCB      0xff,0xd7,0xf4,0x8c
000904  83080411          DCB      0x83,0x08,0x04,0x11
000908  e410e410          DCB      0xe4,0x10,0xe4,0x10
00090c  e4100519          DCB      0xe4,0x10,0x05,0x19
000910  ffffffff          DCB      0xff,0xff,0xff,0xff
000914  ffffffff          DCB      0xff,0xff,0xff,0xff
000918  ffffffff          DCB      0xff,0xff,0xff,0xff
00091c  ffffef73          DCB      0xff,0xff,0xef,0x73
000920  00007284          DCB      0x00,0x00,0x72,0x84
000924  ffefbeef          DCB      0xff,0xef,0xbe,0xef
000928  dfffffff          DCB      0xdf,0xff,0xff,0xff
00092c  ffffffff          DCB      0xff,0xff,0xff,0xff
000930  ffffffff          DCB      0xff,0xff,0xff,0xff
000934  ffffffff          DCB      0xff,0xff,0xff,0xff
000938  ffffffff          DCB      0xff,0xff,0xff,0xff
00093c  ffffffff          DCB      0xff,0xff,0xff,0xff
000940  dfe78bba          DCB      0xdf,0xe7,0x8b,0xba
000944  03f845f8          DCB      0x03,0xf8,0x45,0xf8
000948  45f823f8          DCB      0x45,0xf8,0x23,0xf8
00094c  00f8d3d4          DCB      0x00,0xf8,0xd3,0xd4
000950  ffd74e5b          DCB      0xff,0xd7,0x4e,0x5b
000954  2100293a          DCB      0x21,0x00,0x29,0x3a
000958  55a58308          DCB      0x55,0xa5,0x83,0x08
00095c  c4102519          DCB      0xc4,0x10,0x25,0x19
000960  ffffffff          DCB      0xff,0xff,0xff,0xff
000964  ffffffff          DCB      0xff,0xff,0xff,0xff
000968  ffffffff          DCB      0xff,0xff,0xff,0xff
00096c  fffffbde          DCB      0xff,0xff,0xfb,0xde
000970  a308e831          DCB      0xa3,0x08,0xe8,0x31
000974  9edf9ee7          DCB      0x9e,0xdf,0x9e,0xe7
000978  bfefffff          DCB      0xbf,0xef,0xff,0xff
00097c  ffffffff          DCB      0xff,0xff,0xff,0xff
000980  ffffffff          DCB      0xff,0xff,0xff,0xff
000984  ffffffff          DCB      0xff,0xff,0xff,0xff
000988  ffffffff          DCB      0xff,0xff,0xff,0xff
00098c  ffffffff          DCB      0xff,0xff,0xff,0xff
000990  fff751bc          DCB      0xff,0xf7,0x51,0xbc
000994  02e003f8          DCB      0x02,0xe0,0x03,0xf8
000998  03f043e0          DCB      0x03,0xf0,0x43,0xe0
00099c  ecc27ecf          DCB      0xec,0xc2,0x7e,0xcf
0009a0  fcbe4621          DCB      0xfc,0xbe,0x46,0x21
0009a4  2100d394          DCB      0x21,0x00,0xd3,0x94
0009a8  ffff5184          DCB      0xff,0xff,0x51,0x84
0009ac  00008729          DCB      0x00,0x00,0x87,0x29
0009b0  ffffffff          DCB      0xff,0xff,0xff,0xff
0009b4  ffffffff          DCB      0xff,0xff,0xff,0xff
0009b8  ffffffff          DCB      0xff,0xff,0xff,0xff
0009bc  ffffffff          DCB      0xff,0xff,0xff,0xff
0009c0  51840000          DCB      0x51,0x84,0x00,0x00
0009c4  f48cffef          DCB      0xf4,0x8c,0xff,0xef
0009c8  9ee7bfef          DCB      0x9e,0xe7,0xbf,0xef
0009cc  dfffffff          DCB      0xdf,0xff,0xff,0xff
0009d0  ffffffff          DCB      0xff,0xff,0xff,0xff
0009d4  ffffffff          DCB      0xff,0xff,0xff,0xff
0009d8  ffffffff          DCB      0xff,0xff,0xff,0xff
0009dc  ffffffff          DCB      0xff,0xff,0xff,0xff
0009e0  ffff3ddf          DCB      0xff,0xff,0x3d,0xdf
0009e4  55bd52bc          DCB      0x55,0xbd,0x52,0xbc
0009e8  72bcb7b5          DCB      0x72,0xbc,0xb7,0xb5
0009ec  5dc7ffdf          DCB      0x5d,0xc7,0xff,0xdf
0009f0  f06b0000          DCB      0xf0,0x6b,0x00,0x00
0009f4  093abff7          DCB      0x09,0x3a,0xbf,0xf7
0009f8  ffffffff          DCB      0xff,0xff,0xff,0xff
0009fc  149d55a5          DCB      0x14,0x9d,0x55,0xa5
000a00  ffffffff          DCB      0xff,0xff,0xff,0xff
000a04  ffffffff          DCB      0xff,0xff,0xff,0xff
000a08  ffffffff          DCB      0xff,0xff,0xff,0xff
000a0c  ffffffff          DCB      0xff,0xff,0xff,0xff
000a10  ffffac4a          DCB      0xff,0xff,0xac,0x4a
000a14  a408bbbe          DCB      0xa4,0x08,0xbb,0xbe
000a18  dfe77ee7          DCB      0xdf,0xe7,0x7e,0xe7
000a1c  beefdff7          DCB      0xbe,0xef,0xdf,0xf7
000a20  dfffffff          DCB      0xdf,0xff,0xff,0xff
000a24  ffffffff          DCB      0xff,0xff,0xff,0xff
000a28  ffffffff          DCB      0xff,0xff,0xff,0xff
000a2c  ffffffff          DCB      0xff,0xff,0xff,0xff
000a30  dfffdff7          DCB      0xdf,0xff,0xdf,0xf7
000a34  ffefdfdf          DCB      0xff,0xef,0xdf,0xdf
000a38  bfd79ed7          DCB      0xbf,0xd7,0x9e,0xd7
000a3c  dfdfd8a5          DCB      0xdf,0xdf,0xd8,0xa5
000a40  83082611          DCB      0x83,0x08,0x26,0x11
000a44  dbd6ffff          DCB      0xdb,0xd6,0xff,0xff
000a48  ffffffff          DCB      0xff,0xff,0xff,0xff
000a4c  ffffffff          DCB      0xff,0xff,0xff,0xff
000a50  ffffffff          DCB      0xff,0xff,0xff,0xff
000a54  ffffffff          DCB      0xff,0xff,0xff,0xff
000a58  ffffffff          DCB      0xff,0xff,0xff,0xff
000a5c  ffffffff          DCB      0xff,0xff,0xff,0xff
000a60  79ee8bdc          DCB      0x79,0xee,0x8b,0xdc
000a64  2131a921          DCB      0x21,0x31,0xa9,0x21
000a68  3dcfbfdf          DCB      0x3d,0xcf,0xbf,0xdf
000a6c  7edf9ee7          DCB      0x7e,0xdf,0x9e,0xe7
000a70  beefbfef          DCB      0xbe,0xef,0xbf,0xef
000a74  dff7dff7          DCB      0xdf,0xf7,0xdf,0xf7
000a78  dff7dff7          DCB      0xdf,0xf7,0xdf,0xf7
000a7c  dff7bfef          DCB      0xdf,0xf7,0xbf,0xef
000a80  beef9ee7          DCB      0xbe,0xef,0x9e,0xe7
000a84  7edf5ed7          DCB      0x7e,0xdf,0x5e,0xd7
000a88  5ed7dfdf          DCB      0x5e,0xd7,0xdf,0xdf
000a8c  9ab62619          DCB      0x9a,0xb6,0x26,0x19
000a90  4208eda3          DCB      0x42,0x08,0xed,0xa3
000a94  bfffffff          DCB      0xbf,0xff,0xff,0xff
000a98  ffffffff          DCB      0xff,0xff,0xff,0xff
000a9c  ffffffff          DCB      0xff,0xff,0xff,0xff
000aa0  ffffffff          DCB      0xff,0xff,0xff,0xff
000aa4  ffffffff          DCB      0xff,0xff,0xff,0xff
000aa8  ffffffff          DCB      0xff,0xff,0xff,0xff
000aac  ffff74dd          DCB      0xff,0xff,0x74,0xdd
000ab0  c0db00fe          DCB      0xc0,0xdb,0x00,0xfe
000ab4  42ee0242          DCB      0x42,0xee,0x02,0x42
000ab8  89217bb6          DCB      0x89,0x21,0x7b,0xb6
000abc  dfdf7ed7          DCB      0xdf,0xdf,0x7e,0xd7
000ac0  7edf7edf          DCB      0x7e,0xdf,0x7e,0xdf
000ac4  9ee79ee7          DCB      0x9e,0xe7,0x9e,0xe7
000ac8  9ee79ee7          DCB      0x9e,0xe7,0x9e,0xe7
000acc  9ee77edf          DCB      0x9e,0xe7,0x7e,0xdf
000ad0  7edf5dd7          DCB      0x7e,0xdf,0x5d,0xd7
000ad4  5dd79edf          DCB      0x5d,0xd7,0x9e,0xdf
000ad8  ffe7f8a5          DCB      0xff,0xe7,0xf8,0xa5
000adc  0711e318          DCB      0x07,0x11,0xe3,0x18
000ae0  02c560fd          DCB      0x02,0xc5,0x60,0xfd
000ae4  e6d3dbee          DCB      0xe6,0xd3,0xdb,0xee
000ae8  ffffffff          DCB      0xff,0xff,0xff,0xff
000aec  ffffffff          DCB      0xff,0xff,0xff,0xff
000af0  ffffffff          DCB      0xff,0xff,0xff,0xff
000af4  ffffffff          DCB      0xff,0xff,0xff,0xff
000af8  ffffffff          DCB      0xff,0xff,0xff,0xff
000afc  9ef784ba          DCB      0x9e,0xf7,0x84,0xba
000b00  c1fc42fe          DCB      0xc1,0xfc,0x42,0xfe
000b04  82fea2fe          DCB      0x82,0xfe,0xa2,0xfe
000b08  81834521          DCB      0x81,0x83,0x45,0x21
000b0c  74745ec7          DCB      0x74,0x74,0x5e,0xc7
000b10  dfdf7ed7          DCB      0xdf,0xdf,0x7e,0xd7
000b14  5ed75dd7          DCB      0x5e,0xd7,0x5d,0xd7
000b18  5ed75ed7          DCB      0x5e,0xd7,0x5e,0xd7
000b1c  5dd75dd7          DCB      0x5d,0xd7,0x5d,0xd7
000b20  5ed79edf          DCB      0x5e,0xd7,0x9e,0xdf
000b24  ffe73dc7          DCB      0xff,0xe7,0x3d,0xc7
000b28  f1638408          DCB      0xf1,0x63,0x84,0x08
000b2c  425226e6          DCB      0x42,0x52,0x26,0xe6
000b30  29ff86fe          DCB      0x29,0xff,0x86,0xfe
000b34  e0f36ac3          DCB      0xe0,0xf3,0x6a,0xc3
000b38  ffffffff          DCB      0xff,0xff,0xff,0xff
000b3c  ffffffff          DCB      0xff,0xff,0xff,0xff
000b40  ffffffff          DCB      0xff,0xff,0xff,0xff
000b44  ffffffff          DCB      0xff,0xff,0xff,0xff
000b48  ffffffff          DCB      0xff,0xff,0xff,0xff
000b4c  18dec1d2          DCB      0x18,0xde,0xc1,0xd2
000b50  a2fd22fe          DCB      0xa2,0xfd,0x22,0xfe
000b54  42fe42fe          DCB      0x42,0xfe,0x42,0xfe
000b58  62fee2d4          DCB      0x62,0xfe,0xe2,0xd4
000b5c  416a4942          DCB      0x41,0x6a,0x49,0x42
000b60  53743ba6          DCB      0x53,0x74,0x3b,0xa6
000b64  3ec7bfd7          DCB      0x3e,0xc7,0xbf,0xd7
000b68  bfd7bfd7          DCB      0xbf,0xd7,0xbf,0xd7
000b6c  bfdfbfd7          DCB      0xbf,0xdf,0xbf,0xd7
000b70  3ec71aa6          DCB      0x3e,0xc7,0x1a,0xa6
000b74  f263a729          DCB      0xf2,0x63,0xa7,0x29
000b78  824122b4          DCB      0x82,0x41,0x22,0xb4
000b7c  62fe83fe          DCB      0x62,0xfe,0x83,0xfe
000b80  aafe0fff          DCB      0xaa,0xfe,0x0f,0xff
000b84  67fd63ba          DCB      0x67,0xfd,0x63,0xba
000b88  3cefffff          DCB      0x3c,0xef,0xff,0xff
000b8c  ffffffff          DCB      0xff,0xff,0xff,0xff
000b90  ffffffff          DCB      0xff,0xff,0xff,0xff
000b94  ffffffff          DCB      0xff,0xff,0xff,0xff
000b98  ffffffff          DCB      0xff,0xff,0xff,0xff
000b9c  9ae680d2          DCB      0x9a,0xe6,0x80,0xd2
000ba0  21fdc2fd          DCB      0x21,0xfd,0xc2,0xfd
000ba4  e2f5c2f5          DCB      0xe2,0xf5,0xc2,0xf5
000ba8  82f582fd          DCB      0x82,0xf5,0x82,0xfd
000bac  62fd61dc          DCB      0x62,0xfd,0x61,0xdc
000bb0  219b846a          DCB      0x21,0x9b,0x84,0x6a
000bb4  e96a2c63          DCB      0xe9,0x6a,0x2c,0x63
000bb8  af631174          DCB      0xaf,0x63,0x11,0x74
000bbc  6e632c63          DCB      0x6e,0x63,0x2c,0x63
000bc0  895a0452          DCB      0x89,0x5a,0x04,0x52
000bc4  817ac2cb          DCB      0x81,0x7a,0xc2,0xcb
000bc8  e2fc62fd          DCB      0xe2,0xfc,0x62,0xfd
000bcc  82fdc2fd          DCB      0x82,0xfd,0xc2,0xfd
000bd0  c2fde4fd          DCB      0xc2,0xfd,0xe4,0xfd
000bd4  24fd62ca          DCB      0x24,0xfd,0x62,0xca
000bd8  1ce7ffff          DCB      0x1c,0xe7,0xff,0xff
000bdc  ffffffff          DCB      0xff,0xff,0xff,0xff
000be0  ffffffff          DCB      0xff,0xff,0xff,0xff
000be4  ffffffff          DCB      0xff,0xff,0xff,0xff
000be8  ffffffff          DCB      0xff,0xff,0xff,0xff
000bec  ffffb1cc          DCB      0xff,0xff,0xb1,0xcc
000bf0  81d2c0f3          DCB      0x81,0xd2,0xc0,0xf3
000bf4  c1fc02fd          DCB      0xc1,0xfc,0x02,0xfd
000bf8  02fde2fc          DCB      0x02,0xfd,0xe2,0xfc
000bfc  c2fcc2fc          DCB      0xc2,0xfc,0xc2,0xfc
000c00  81fc80fb          DCB      0x81,0xfc,0x80,0xfb
000c04  c0c9a481          DCB      0xc0,0xc9,0xa4,0x81
000c08  35ad59ce          DCB      0x35,0xad,0x59,0xce
000c0c  719c2181          DCB      0x71,0x9c,0x21,0x81
000c10  00daa1fb          DCB      0x00,0xda,0xa1,0xfb
000c14  82fca2fc          DCB      0x82,0xfc,0xa2,0xfc
000c18  82fca2fc          DCB      0x82,0xfc,0xa2,0xfc
000c1c  02fd22fd          DCB      0x02,0xfd,0x22,0xfd
000c20  e2fc00fc          DCB      0xe2,0xfc,0x00,0xfc
000c24  60da90cc          DCB      0x60,0xda,0x90,0xcc
000c28  ffffffff          DCB      0xff,0xff,0xff,0xff
000c2c  ffffffff          DCB      0xff,0xff,0xff,0xff
000c30  ffffffff          DCB      0xff,0xff,0xff,0xff
000c34  ffffffff          DCB      0xff,0xff,0xff,0xff
000c38  ffffffff          DCB      0xff,0xff,0xff,0xff
000c3c  ffffffff          DCB      0xff,0xff,0xff,0xff
000c40  59de0dc4          DCB      0x59,0xde,0x0d,0xc4
000c44  06cbe4d2          DCB      0x06,0xcb,0xe4,0xd2
000c48  03db03db          DCB      0x03,0xdb,0x03,0xdb
000c4c  e3dac3d2          DCB      0xe3,0xda,0xc3,0xd2
000c50  a4c209b3          DCB      0xa4,0xc2,0x09,0xb3
000c54  d2bc9ef7          DCB      0xd2,0xbc,0x9e,0xf7
000c58  ffffffff          DCB      0xff,0xff,0xff,0xff
000c5c  fffffbe6          DCB      0xff,0xff,0xfb,0xe6
000c60  0eb4a6ba          DCB      0x0e,0xb4,0xa6,0xba
000c64  83d2e3e2          DCB      0x83,0xd2,0xe3,0xe2
000c68  02eb22eb          DCB      0x02,0xeb,0x22,0xeb
000c6c  22e303db          DCB      0x22,0xe3,0x03,0xdb
000c70  e4d26ac3          DCB      0xe4,0xd2,0x6a,0xc3
000c74  b6d5ffff          DCB      0xb6,0xd5,0xff,0xff
000c78  ffffffff          DCB      0xff,0xff,0xff,0xff
000c7c  ffffffff          DCB      0xff,0xff,0xff,0xff
                          DCD      ||.conststring||
                          DCD      ||.conststring||+0xc
                          DCD      ||.conststring||+0x18
                          DCD      ||.conststring||+0x28

                          AREA ||.conststring||, DATA, READONLY, MERGE=1, STRINGS, ALIGN=2

000000  526f7461          DCB      "Rotation:0",0
000004  74696f6e
000008  3a3000  
00000b  00                DCB      0
00000c  526f7461          DCB      "Rotation:90",0
000010  74696f6e
000014  3a393000
000018  526f7461          DCB      "Rotation:180",0
00001c  74696f6e
000020  3a313830
000024  00      
000025  00                DCB      0
000026  00                DCB      0
000027  00                DCB      0
000028  526f7461          DCB      "Rotation:270",0
00002c  74696f6e
000030  3a323730
000034  00      

                          AREA ||.data||, DATA, ALIGN=1

                  ColorTab
000000  f80007e0          DCW      0xf800,0x07e0
000004  001fffe0          DCW      0x001f,0xffe0
000008  f81f              DCW      0xf81f

;*** Start embedded assembler ***

#line 1 "..\\..\\..\\..\\User\\LL\\lcd_tests.c"
	AREA ||.rev16_text||, CODE
	THUMB
	EXPORT |__asm___11_lcd_tests_c_903c1c23____REV16|
#line 459 "..\\..\\..\\..\\Libraries\\CMSIS\\Core\\Include\\cmsis_armcc.h"
|__asm___11_lcd_tests_c_903c1c23____REV16| PROC
#line 460

 rev16 r0, r0
 bx lr
	ENDP
	AREA ||.revsh_text||, CODE
	THUMB
	EXPORT |__asm___11_lcd_tests_c_903c1c23____REVSH|
#line 474
|__asm___11_lcd_tests_c_903c1c23____REVSH| PROC
#line 475

 revsh r0, r0
 bx lr
	ENDP
	AREA ||.rrx_text||, CODE
	THUMB
	EXPORT |__asm___11_lcd_tests_c_903c1c23____RRX|
#line 661
|__asm___11_lcd_tests_c_903c1c23____RRX| PROC
#line 662

 rrx r0, r0
 bx lr
	ENDP

;*** End   embedded assembler ***
